ARM GAS  C:\Users\Terrance\AppData\Local\Temp\ccQRCimf.s 			page 1


   1              		.cpu cortex-m0
   2              		.fpu softvfp
   3              		.eabi_attribute 20, 1
   4              		.eabi_attribute 21, 1
   5              		.eabi_attribute 23, 3
   6              		.eabi_attribute 24, 1
   7              		.eabi_attribute 25, 1
   8              		.eabi_attribute 26, 1
   9              		.eabi_attribute 30, 6
  10              		.eabi_attribute 34, 0
  11              		.eabi_attribute 18, 4
  12              		.code	16
  13              		.file	"main.c"
  14              		.text
  15              	.Ltext0:
  16              		.cfi_sections	.debug_frame
  17              		.section	.text.main,"ax",%progbits
  18              		.align	2
  19              		.global	main
  20              		.code	16
  21              		.thumb_func
  22              		.type	main, %function
  23              	main:
  24              	.LFB33:
  25              		.file 1 ".\\main.c"
   1:.\main.c      **** /******************************************************************************
   2:.\main.c      **** * Project Name		: Bootloadable Blinking LED
   3:.\main.c      **** * File Name			: main.c
   4:.\main.c      **** * Version 			: 1.0
   5:.\main.c      **** * Device Used		: CY8C4245AXI-483
   6:.\main.c      **** * Software Used		: PSoC Creator 3.0
   7:.\main.c      **** * Compiler    		: ARMGCC 4.7.3, ARM RVDS Generic, ARM MDK Generic
   8:.\main.c      **** * Related Hardware	: CY8CKIT-049-42xx PSoC 4 Prototyping Kit 
   9:.\main.c      **** *
  10:.\main.c      **** ********************************************************************************
  11:.\main.c      **** * Copyright (2014), Cypress Semiconductor Corporation. All Rights Reserved.
  12:.\main.c      **** ********************************************************************************
  13:.\main.c      **** * This software is owned by Cypress Semiconductor Corporation (Cypress)
  14:.\main.c      **** * and is protected by and subject to worldwide patent protection (United
  15:.\main.c      **** * States and foreign), United States copyright laws and international treaty
  16:.\main.c      **** * provisions. Cypress hereby grants to licensee a personal, non-exclusive,
  17:.\main.c      **** * non-transferable license to copy, use, modify, create derivative works of,
  18:.\main.c      **** * and compile the Cypress Source Code and derivative works for the sole
  19:.\main.c      **** * purpose of creating custom software in support of licensee product to be
  20:.\main.c      **** * used only in conjunction with a Cypress integrated circuit as specified in
  21:.\main.c      **** * the applicable agreement. Any reproduction, modification, translation,
  22:.\main.c      **** * compilation, or representation of this software except as specified above 
  23:.\main.c      **** * is prohibited without the express written permission of Cypress.
  24:.\main.c      **** *
  25:.\main.c      **** * Disclaimer: CYPRESS MAKES NO WARRANTY OF ANY KIND, EXPRESS OR IMPLIED, WITH 
  26:.\main.c      **** * REGARD TO THIS MATERIAL, INCLUDING, BUT NOT LIMITED TO, THE IMPLIED 
  27:.\main.c      **** * WARRANTIES OF MERCHANTABILITY AND FITNESS FOR A PARTICULAR PURPOSE.
  28:.\main.c      **** * Cypress reserves the right to make changes without further notice to the 
  29:.\main.c      **** * materials described herein. Cypress does not assume any liability arising out 
  30:.\main.c      **** * of the application or use of any product or circuit described herein. Cypress 
  31:.\main.c      **** * does not authorize its products for use as critical components in life-support 
  32:.\main.c      **** * systems where a malfunction or failure may reasonably be expected to result in 
ARM GAS  C:\Users\Terrance\AppData\Local\Temp\ccQRCimf.s 			page 2


  33:.\main.c      **** * significant injury to the user. The inclusion of Cypress' product in a life-
  34:.\main.c      **** * support systems application implies that the manufacturer assumes all risk of 
  35:.\main.c      **** * such use and in doing so indemnifies Cypress against all charges. 
  36:.\main.c      **** *
  37:.\main.c      **** * Use of this Software may be limited by and subject to the applicable Cypress
  38:.\main.c      **** * software license agreement. 
  39:.\main.c      **** *******************************************************************************/
  40:.\main.c      **** 
  41:.\main.c      **** /******************************************************************************
  42:.\main.c      **** *                           THEORY OF OPERATION
  43:.\main.c      **** * This is a blinking LED project. A PWM component drives the pin to blink the 
  44:.\main.c      **** * LED at regular intervals. This project contains a bootloadable component so 
  45:.\main.c      **** * that it can be bootloaded into PSoC 4 which has a bootloader already programmed 
  46:.\main.c      **** * into it.
  47:.\main.c      **** * Default UART Port Configuration for bootloading the PSoC 4 in CY8CKIT-049-42xx
  48:.\main.c      **** * Baud Rate : 115200 bps
  49:.\main.c      **** * Data Bits : 8
  50:.\main.c      **** * Stop Bits : 1
  51:.\main.c      **** * Parity    : None
  52:.\main.c      **** ******************************************************************************/
  53:.\main.c      **** #include <project.h>
  54:.\main.c      **** #include <stdlib.h>
  55:.\main.c      **** 
  56:.\main.c      **** 
  57:.\main.c      **** int main()
  58:.\main.c      **** {
  26              		.loc 1 58 0
  27              		.cfi_startproc
  28 0000 80B5     		push	{r7, lr}
  29              	.LCFI0:
  30              		.cfi_def_cfa_offset 8
  31              		.cfi_offset 7, -8
  32              		.cfi_offset 14, -4
  33 0002 82B0     		sub	sp, sp, #8
  34              	.LCFI1:
  35              		.cfi_def_cfa_offset 16
  36 0004 00AF     		add	r7, sp, #0
  37              	.LCFI2:
  38              		.cfi_def_cfa_register 7
  59:.\main.c      ****     PWM_Red_Start();
  39              		.loc 1 59 0
  40 0006 FFF7FEFF 		bl	PWM_Red_Start
  60:.\main.c      ****     PWM_BlueWhite_Start();
  41              		.loc 1 60 0
  42 000a FFF7FEFF 		bl	PWM_BlueWhite_Start
  61:.\main.c      ****     PWM_GreenYellow_Start();
  43              		.loc 1 61 0
  44 000e FFF7FEFF 		bl	PWM_GreenYellow_Start
  62:.\main.c      ****    
  63:.\main.c      ****     
  64:.\main.c      ****     uint8 Red_gain=1;
  45              		.loc 1 64 0
  46 0012 FB1D     		add	r3, r7, #7
  47 0014 0122     		mov	r2, #1
  48 0016 1A70     		strb	r2, [r3]
  65:.\main.c      ****     uint8 Green_gain=1;
  49              		.loc 1 65 0
ARM GAS  C:\Users\Terrance\AppData\Local\Temp\ccQRCimf.s 			page 3


  50 0018 BB1D     		add	r3, r7, #6
  51 001a 0122     		mov	r2, #1
  52 001c 1A70     		strb	r2, [r3]
  66:.\main.c      ****     uint8 Blue_gain=1;
  53              		.loc 1 66 0
  54 001e 7B1D     		add	r3, r7, #5
  55 0020 0122     		mov	r2, #1
  56 0022 1A70     		strb	r2, [r3]
  67:.\main.c      ****     uint8 White_gain=1;
  57              		.loc 1 67 0
  58 0024 3B1D     		add	r3, r7, #4
  59 0026 0122     		mov	r2, #1
  60 0028 1A70     		strb	r2, [r3]
  68:.\main.c      ****     uint8 Yellow_gain=1;
  61              		.loc 1 68 0
  62 002a FB1C     		add	r3, r7, #3
  63 002c 0122     		mov	r2, #1
  64 002e 1A70     		strb	r2, [r3]
  65              	.L2:
  69:.\main.c      ****     
  70:.\main.c      **** 	for(;;)
  71:.\main.c      ****     {
  72:.\main.c      ****         /* The PSoC 4 is put into Sleep Mode as the PWM component is used to 
  73:.\main.c      **** 		blink the LED */
  74:.\main.c      **** 		PWM_Red_WriteCompare(Red_gain*100);
  66              		.loc 1 74 0 discriminator 1
  67 0030 FB1D     		add	r3, r7, #7
  68 0032 1B78     		ldrb	r3, [r3]
  69 0034 6422     		mov	r2, #100
  70 0036 5343     		mul	r3, r2
  71 0038 DBB2     		uxtb	r3, r3
  72 003a 181C     		mov	r0, r3
  73 003c FFF7FEFF 		bl	PWM_Red_WriteCompare
  75:.\main.c      ****         PWM_GreenYellow_WriteCompare1(Green_gain*100);
  74              		.loc 1 75 0 discriminator 1
  75 0040 BB1D     		add	r3, r7, #6
  76 0042 1B78     		ldrb	r3, [r3]
  77 0044 6422     		mov	r2, #100
  78 0046 5343     		mul	r3, r2
  79 0048 DBB2     		uxtb	r3, r3
  80 004a 181C     		mov	r0, r3
  81 004c FFF7FEFF 		bl	PWM_GreenYellow_WriteCompare1
  76:.\main.c      ****         PWM_GreenYellow_WriteCompare2(Yellow_gain*100);
  82              		.loc 1 76 0 discriminator 1
  83 0050 FB1C     		add	r3, r7, #3
  84 0052 1B78     		ldrb	r3, [r3]
  85 0054 6422     		mov	r2, #100
  86 0056 5343     		mul	r3, r2
  87 0058 DBB2     		uxtb	r3, r3
  88 005a 181C     		mov	r0, r3
  89 005c FFF7FEFF 		bl	PWM_GreenYellow_WriteCompare2
  77:.\main.c      ****         PWM_BlueWhite_WriteCompare2(White_gain*100);
  90              		.loc 1 77 0 discriminator 1
  91 0060 3B1D     		add	r3, r7, #4
  92 0062 1B78     		ldrb	r3, [r3]
  93 0064 6422     		mov	r2, #100
  94 0066 5343     		mul	r3, r2
ARM GAS  C:\Users\Terrance\AppData\Local\Temp\ccQRCimf.s 			page 4


  95 0068 DBB2     		uxtb	r3, r3
  96 006a 181C     		mov	r0, r3
  97 006c FFF7FEFF 		bl	PWM_BlueWhite_WriteCompare2
  78:.\main.c      ****         PWM_BlueWhite_WriteCompare1(Blue_gain*100);
  98              		.loc 1 78 0 discriminator 1
  99 0070 7B1D     		add	r3, r7, #5
 100 0072 1B78     		ldrb	r3, [r3]
 101 0074 6422     		mov	r2, #100
 102 0076 5343     		mul	r3, r2
 103 0078 DBB2     		uxtb	r3, r3
 104 007a 181C     		mov	r0, r3
 105 007c FFF7FEFF 		bl	PWM_BlueWhite_WriteCompare1
  79:.\main.c      ****     }
 106              		.loc 1 79 0 discriminator 1
 107 0080 D6E7     		b	.L2
 108              		.cfi_endproc
 109              	.LFE33:
 110              		.size	main, .-main
 111 0082 C046     		.text
 112              	.Letext0:
 113              		.file 2 "./Generated_Source/PSoC4/cytypes.h"