ARM GAS  C:\Users\Terrance\AppData\Local\Temp\ccHh2A52.s 			page 1


   1              		.cpu cortex-m0
   2              		.fpu softvfp
   3              		.eabi_attribute 20, 1
   4              		.eabi_attribute 21, 1
   5              		.eabi_attribute 23, 3
   6              		.eabi_attribute 24, 1
   7              		.eabi_attribute 25, 1
   8              		.eabi_attribute 26, 1
   9              		.eabi_attribute 30, 6
  10              		.eabi_attribute 34, 0
  11              		.eabi_attribute 18, 4
  12              		.code	16
  13              		.file	"PWM.c"
  14              		.text
  15              	.Ltext0:
  16              		.cfi_sections	.debug_frame
  17              		.global	PWM_initVar
  18              		.bss
  19              		.type	PWM_initVar, %object
  20              		.size	PWM_initVar, 1
  21              	PWM_initVar:
  22 0000 00       		.space	1
  23              		.section	.text.PWM_Init,"ax",%progbits
  24              		.align	2
  25              		.global	PWM_Init
  26              		.code	16
  27              		.thumb_func
  28              		.type	PWM_Init, %function
  29              	PWM_Init:
  30              	.LFB0:
  31              		.file 1 ".\\Generated_Source\\PSoC4\\PWM.c"
   1:.\Generated_Source\PSoC4/PWM.c **** /*******************************************************************************
   2:.\Generated_Source\PSoC4/PWM.c **** * File Name: PWM.c
   3:.\Generated_Source\PSoC4/PWM.c **** * Version 1.10
   4:.\Generated_Source\PSoC4/PWM.c **** *
   5:.\Generated_Source\PSoC4/PWM.c **** * Description:
   6:.\Generated_Source\PSoC4/PWM.c **** *  This file provides the source code to the API for the PWM
   7:.\Generated_Source\PSoC4/PWM.c **** *  component
   8:.\Generated_Source\PSoC4/PWM.c **** *
   9:.\Generated_Source\PSoC4/PWM.c **** * Note:
  10:.\Generated_Source\PSoC4/PWM.c **** *  None
  11:.\Generated_Source\PSoC4/PWM.c **** *
  12:.\Generated_Source\PSoC4/PWM.c **** ********************************************************************************
  13:.\Generated_Source\PSoC4/PWM.c **** * Copyright 2013-2014, Cypress Semiconductor Corporation.  All rights reserved.
  14:.\Generated_Source\PSoC4/PWM.c **** * You may use this file only in accordance with the license, terms, conditions,
  15:.\Generated_Source\PSoC4/PWM.c **** * disclaimers, and limitations in the end user license agreement accompanying
  16:.\Generated_Source\PSoC4/PWM.c **** * the software package with which this file was provided.
  17:.\Generated_Source\PSoC4/PWM.c **** *******************************************************************************/
  18:.\Generated_Source\PSoC4/PWM.c **** 
  19:.\Generated_Source\PSoC4/PWM.c **** #include "PWM.h"
  20:.\Generated_Source\PSoC4/PWM.c **** #include "CyLib.h"
  21:.\Generated_Source\PSoC4/PWM.c **** 
  22:.\Generated_Source\PSoC4/PWM.c **** uint8 PWM_initVar = 0u;
  23:.\Generated_Source\PSoC4/PWM.c **** 
  24:.\Generated_Source\PSoC4/PWM.c **** 
  25:.\Generated_Source\PSoC4/PWM.c **** /*******************************************************************************
  26:.\Generated_Source\PSoC4/PWM.c **** * Function Name: PWM_Init
ARM GAS  C:\Users\Terrance\AppData\Local\Temp\ccHh2A52.s 			page 2


  27:.\Generated_Source\PSoC4/PWM.c **** ********************************************************************************
  28:.\Generated_Source\PSoC4/PWM.c **** *
  29:.\Generated_Source\PSoC4/PWM.c **** * Summary:
  30:.\Generated_Source\PSoC4/PWM.c **** *  Initialize/Restore default PWM configuration.
  31:.\Generated_Source\PSoC4/PWM.c **** *
  32:.\Generated_Source\PSoC4/PWM.c **** * Parameters:
  33:.\Generated_Source\PSoC4/PWM.c **** *  None
  34:.\Generated_Source\PSoC4/PWM.c **** *
  35:.\Generated_Source\PSoC4/PWM.c **** * Return:
  36:.\Generated_Source\PSoC4/PWM.c **** *  None
  37:.\Generated_Source\PSoC4/PWM.c **** *
  38:.\Generated_Source\PSoC4/PWM.c **** *******************************************************************************/
  39:.\Generated_Source\PSoC4/PWM.c **** void PWM_Init(void)
  40:.\Generated_Source\PSoC4/PWM.c **** {
  32              		.loc 1 40 0
  33              		.cfi_startproc
  34 0000 80B5     		push	{r7, lr}
  35              	.LCFI0:
  36              		.cfi_def_cfa_offset 8
  37              		.cfi_offset 7, -8
  38              		.cfi_offset 14, -4
  39 0002 00AF     		add	r7, sp, #0
  40              	.LCFI1:
  41              		.cfi_def_cfa_register 7
  41:.\Generated_Source\PSoC4/PWM.c **** 
  42:.\Generated_Source\PSoC4/PWM.c ****     /* Set values from customizer to CTRL */
  43:.\Generated_Source\PSoC4/PWM.c ****     #if (PWM__QUAD == PWM_CONFIG)
  44:.\Generated_Source\PSoC4/PWM.c ****         PWM_CONTROL_REG =
  45:.\Generated_Source\PSoC4/PWM.c ****         (((uint32)(PWM_QUAD_ENCODING_MODES     << PWM_QUAD_MODE_SHIFT))       |
  46:.\Generated_Source\PSoC4/PWM.c ****          ((uint32)(PWM_CONFIG                  << PWM_MODE_SHIFT)));
  47:.\Generated_Source\PSoC4/PWM.c ****     #endif  /* (PWM__QUAD == PWM_CONFIG) */
  48:.\Generated_Source\PSoC4/PWM.c **** 
  49:.\Generated_Source\PSoC4/PWM.c ****     #if (PWM__PWM_SEL == PWM_CONFIG)
  50:.\Generated_Source\PSoC4/PWM.c ****         PWM_CONTROL_REG =
  42              		.loc 1 50 0
  43 0004 144B     		ldr	r3, .L2
  44 0006 8422     		mov	r2, #132
  45 0008 D204     		lsl	r2, r2, #19
  46 000a 1A60     		str	r2, [r3]
  51:.\Generated_Source\PSoC4/PWM.c ****         (((uint32)(PWM_PWM_STOP_EVENT          << PWM_PWM_STOP_KILL_SHIFT))    |
  52:.\Generated_Source\PSoC4/PWM.c ****          ((uint32)(PWM_PWM_OUT_INVERT          << PWM_INV_OUT_SHIFT))         |
  53:.\Generated_Source\PSoC4/PWM.c ****          ((uint32)(PWM_PWM_OUT_N_INVERT        << PWM_INV_COMPL_OUT_SHIFT))     |
  54:.\Generated_Source\PSoC4/PWM.c ****          ((uint32)(PWM_PWM_MODE                << PWM_MODE_SHIFT)));
  55:.\Generated_Source\PSoC4/PWM.c **** 
  56:.\Generated_Source\PSoC4/PWM.c ****         #if (PWM__PWM_PR == PWM_PWM_MODE)
  57:.\Generated_Source\PSoC4/PWM.c ****             PWM_CONTROL_REG |=
  58:.\Generated_Source\PSoC4/PWM.c ****             ((uint32)(PWM_PWM_RUN_MODE         << PWM_ONESHOT_SHIFT));
  59:.\Generated_Source\PSoC4/PWM.c **** 
  60:.\Generated_Source\PSoC4/PWM.c ****             PWM_WriteCounter(PWM_PWM_PR_INIT_VALUE);
  61:.\Generated_Source\PSoC4/PWM.c ****         #else
  62:.\Generated_Source\PSoC4/PWM.c ****             PWM_CONTROL_REG |=
  47              		.loc 1 62 0
  48 000c 124B     		ldr	r3, .L2
  49 000e 124A     		ldr	r2, .L2
  50 0010 1268     		ldr	r2, [r2]
  51 0012 8021     		mov	r1, #128
  52 0014 4902     		lsl	r1, r1, #9
ARM GAS  C:\Users\Terrance\AppData\Local\Temp\ccHh2A52.s 			page 3


  53 0016 0A43     		orr	r2, r1
  54 0018 1A60     		str	r2, [r3]
  63:.\Generated_Source\PSoC4/PWM.c ****             (((uint32)(PWM_PWM_ALIGN           << PWM_UPDOWN_SHIFT))          |
  64:.\Generated_Source\PSoC4/PWM.c ****              ((uint32)(PWM_PWM_KILL_EVENT      << PWM_PWM_SYNC_KILL_SHIFT)));
  65:.\Generated_Source\PSoC4/PWM.c ****         #endif  /* (PWM__PWM_PR == PWM_PWM_MODE) */
  66:.\Generated_Source\PSoC4/PWM.c **** 
  67:.\Generated_Source\PSoC4/PWM.c ****         #if (PWM__PWM_DT == PWM_PWM_MODE)
  68:.\Generated_Source\PSoC4/PWM.c ****             PWM_CONTROL_REG |=
  69:.\Generated_Source\PSoC4/PWM.c ****             ((uint32)(PWM_PWM_DEAD_TIME_CYCLE  << PWM_PRESCALER_SHIFT));
  70:.\Generated_Source\PSoC4/PWM.c ****         #endif  /* (PWM__PWM_DT == PWM_PWM_MODE) */
  71:.\Generated_Source\PSoC4/PWM.c **** 
  72:.\Generated_Source\PSoC4/PWM.c ****         #if (PWM__PWM == PWM_PWM_MODE)
  73:.\Generated_Source\PSoC4/PWM.c ****             PWM_CONTROL_REG |=
  55              		.loc 1 73 0
  56 001a 0F4B     		ldr	r3, .L2
  57 001c 0E4A     		ldr	r2, .L2
  58 001e 1268     		ldr	r2, [r2]
  59 0020 1A60     		str	r2, [r3]
  74:.\Generated_Source\PSoC4/PWM.c ****             ((uint32)PWM_PWM_PRESCALER         << PWM_PRESCALER_SHIFT);
  75:.\Generated_Source\PSoC4/PWM.c ****         #endif  /* (PWM__PWM == PWM_PWM_MODE) */
  76:.\Generated_Source\PSoC4/PWM.c ****     #endif  /* (PWM__PWM_SEL == PWM_CONFIG) */
  77:.\Generated_Source\PSoC4/PWM.c **** 
  78:.\Generated_Source\PSoC4/PWM.c ****     #if (PWM__TIMER == PWM_CONFIG)
  79:.\Generated_Source\PSoC4/PWM.c ****         PWM_CONTROL_REG =
  80:.\Generated_Source\PSoC4/PWM.c ****         (((uint32)(PWM_TC_PRESCALER            << PWM_PRESCALER_SHIFT))   |
  81:.\Generated_Source\PSoC4/PWM.c ****          ((uint32)(PWM_TC_COUNTER_MODE         << PWM_UPDOWN_SHIFT))      |
  82:.\Generated_Source\PSoC4/PWM.c ****          ((uint32)(PWM_TC_RUN_MODE             << PWM_ONESHOT_SHIFT))     |
  83:.\Generated_Source\PSoC4/PWM.c ****          ((uint32)(PWM_TC_COMP_CAP_MODE        << PWM_MODE_SHIFT)));
  84:.\Generated_Source\PSoC4/PWM.c ****     #endif  /* (PWM__TIMER == PWM_CONFIG) */
  85:.\Generated_Source\PSoC4/PWM.c **** 
  86:.\Generated_Source\PSoC4/PWM.c ****     /* Set values from customizer to CTRL1 */
  87:.\Generated_Source\PSoC4/PWM.c ****     #if (PWM__QUAD == PWM_CONFIG)
  88:.\Generated_Source\PSoC4/PWM.c ****         PWM_TRIG_CONTROL1_REG  =
  89:.\Generated_Source\PSoC4/PWM.c ****         (((uint32)(PWM_QUAD_PHIA_SIGNAL_MODE   << PWM_COUNT_SHIFT))       |
  90:.\Generated_Source\PSoC4/PWM.c ****          ((uint32)(PWM_QUAD_INDEX_SIGNAL_MODE  << PWM_RELOAD_SHIFT))      |
  91:.\Generated_Source\PSoC4/PWM.c ****          ((uint32)(PWM_QUAD_STOP_SIGNAL_MODE   << PWM_STOP_SHIFT))        |
  92:.\Generated_Source\PSoC4/PWM.c ****          ((uint32)(PWM_QUAD_PHIB_SIGNAL_MODE   << PWM_START_SHIFT)));
  93:.\Generated_Source\PSoC4/PWM.c ****     #endif  /* (PWM__QUAD == PWM_CONFIG) */
  94:.\Generated_Source\PSoC4/PWM.c **** 
  95:.\Generated_Source\PSoC4/PWM.c ****     #if (PWM__PWM_SEL == PWM_CONFIG)
  96:.\Generated_Source\PSoC4/PWM.c ****         PWM_TRIG_CONTROL1_REG  =
  60              		.loc 1 96 0
  61 0022 0E4B     		ldr	r3, .L2+4
  62 0024 C322     		mov	r2, #195
  63 0026 9200     		lsl	r2, r2, #2
  64 0028 1A60     		str	r2, [r3]
  97:.\Generated_Source\PSoC4/PWM.c ****         (((uint32)(PWM_PWM_SWITCH_SIGNAL_MODE  << PWM_CAPTURE_SHIFT))     |
  98:.\Generated_Source\PSoC4/PWM.c ****          ((uint32)(PWM_PWM_COUNT_SIGNAL_MODE   << PWM_COUNT_SHIFT))       |
  99:.\Generated_Source\PSoC4/PWM.c ****          ((uint32)(PWM_PWM_RELOAD_SIGNAL_MODE  << PWM_RELOAD_SHIFT))      |
 100:.\Generated_Source\PSoC4/PWM.c ****          ((uint32)(PWM_PWM_STOP_SIGNAL_MODE    << PWM_STOP_SHIFT))        |
 101:.\Generated_Source\PSoC4/PWM.c ****          ((uint32)(PWM_PWM_START_SIGNAL_MODE   << PWM_START_SHIFT)));
 102:.\Generated_Source\PSoC4/PWM.c ****     #endif  /* (PWM__PWM_SEL == PWM_CONFIG) */
 103:.\Generated_Source\PSoC4/PWM.c **** 
 104:.\Generated_Source\PSoC4/PWM.c ****     #if (PWM__TIMER == PWM_CONFIG)
 105:.\Generated_Source\PSoC4/PWM.c ****         PWM_TRIG_CONTROL1_REG  =
 106:.\Generated_Source\PSoC4/PWM.c ****         (((uint32)(PWM_TC_CAPTURE_SIGNAL_MODE  << PWM_CAPTURE_SHIFT))     |
 107:.\Generated_Source\PSoC4/PWM.c ****          ((uint32)(PWM_TC_COUNT_SIGNAL_MODE    << PWM_COUNT_SHIFT))       |
ARM GAS  C:\Users\Terrance\AppData\Local\Temp\ccHh2A52.s 			page 4


 108:.\Generated_Source\PSoC4/PWM.c ****          ((uint32)(PWM_TC_RELOAD_SIGNAL_MODE   << PWM_RELOAD_SHIFT))      |
 109:.\Generated_Source\PSoC4/PWM.c ****          ((uint32)(PWM_TC_STOP_SIGNAL_MODE     << PWM_STOP_SHIFT))        |
 110:.\Generated_Source\PSoC4/PWM.c ****          ((uint32)(PWM_TC_START_SIGNAL_MODE    << PWM_START_SHIFT)));
 111:.\Generated_Source\PSoC4/PWM.c ****     #endif  /* (PWM__TIMER == PWM_CONFIG) */
 112:.\Generated_Source\PSoC4/PWM.c **** 
 113:.\Generated_Source\PSoC4/PWM.c ****     /* Set values from customizer to INTR */
 114:.\Generated_Source\PSoC4/PWM.c ****     #if (PWM__QUAD == PWM_CONFIG)
 115:.\Generated_Source\PSoC4/PWM.c ****         PWM_SetInterruptMode(PWM_QUAD_INTERRUPT_MASK);
 116:.\Generated_Source\PSoC4/PWM.c ****     #endif  /* (PWM__QUAD == PWM_CONFIG) */
 117:.\Generated_Source\PSoC4/PWM.c **** 
 118:.\Generated_Source\PSoC4/PWM.c ****     #if (PWM__PWM_SEL == PWM_CONFIG)
 119:.\Generated_Source\PSoC4/PWM.c ****         PWM_SetInterruptMode(PWM_PWM_INTERRUPT_MASK);
  65              		.loc 1 119 0
  66 002a 0020     		mov	r0, #0
  67 002c FFF7FEFF 		bl	PWM_SetInterruptMode
 120:.\Generated_Source\PSoC4/PWM.c ****     #endif  /* (PWM__PWM_SEL == PWM_CONFIG) */
 121:.\Generated_Source\PSoC4/PWM.c **** 
 122:.\Generated_Source\PSoC4/PWM.c ****     #if (PWM__TIMER == PWM_CONFIG)
 123:.\Generated_Source\PSoC4/PWM.c ****         PWM_SetInterruptMode(PWM_TC_INTERRUPT_MASK);
 124:.\Generated_Source\PSoC4/PWM.c ****     #endif  /* (PWM__TIMER == PWM_CONFIG) */
 125:.\Generated_Source\PSoC4/PWM.c **** 
 126:.\Generated_Source\PSoC4/PWM.c ****     /* Set other values from customizer */
 127:.\Generated_Source\PSoC4/PWM.c ****     #if (PWM__TIMER == PWM_CONFIG)
 128:.\Generated_Source\PSoC4/PWM.c ****         PWM_WritePeriod(PWM_TC_PERIOD_VALUE );
 129:.\Generated_Source\PSoC4/PWM.c **** 
 130:.\Generated_Source\PSoC4/PWM.c ****         #if (PWM__COUNT_DOWN == PWM_TC_COUNTER_MODE)
 131:.\Generated_Source\PSoC4/PWM.c ****             PWM_WriteCounter(PWM_TC_PERIOD_VALUE );
 132:.\Generated_Source\PSoC4/PWM.c ****         #endif  /* (PWM__COUNT_DOWN == PWM_TC_COUNTER_MODE) */
 133:.\Generated_Source\PSoC4/PWM.c **** 
 134:.\Generated_Source\PSoC4/PWM.c ****         #if (PWM__COMPARE == PWM_TC_COMP_CAP_MODE)
 135:.\Generated_Source\PSoC4/PWM.c ****             PWM_WriteCompare(PWM_TC_COMPARE_VALUE);
 136:.\Generated_Source\PSoC4/PWM.c **** 
 137:.\Generated_Source\PSoC4/PWM.c ****             #if (1u == PWM_TC_COMPARE_SWAP)
 138:.\Generated_Source\PSoC4/PWM.c ****                 PWM_SetCompareSwap(1u);
 139:.\Generated_Source\PSoC4/PWM.c ****                 PWM_WriteCompareBuf(PWM_TC_COMPARE_BUF_VALUE);
 140:.\Generated_Source\PSoC4/PWM.c ****             #endif  /* (1u == PWM_TC_COMPARE_SWAP) */
 141:.\Generated_Source\PSoC4/PWM.c ****         #endif  /* (PWM__COMPARE == PWM_TC_COMP_CAP_MODE) */
 142:.\Generated_Source\PSoC4/PWM.c ****     #endif  /* (PWM__TIMER == PWM_CONFIG) */
 143:.\Generated_Source\PSoC4/PWM.c **** 
 144:.\Generated_Source\PSoC4/PWM.c ****     #if (PWM__PWM_SEL == PWM_CONFIG)
 145:.\Generated_Source\PSoC4/PWM.c ****         PWM_WritePeriod(PWM_PWM_PERIOD_VALUE );
  68              		.loc 1 145 0
  69 0030 FA23     		mov	r3, #250
  70 0032 9B00     		lsl	r3, r3, #2
  71 0034 181C     		mov	r0, r3
  72 0036 FFF7FEFF 		bl	PWM_WritePeriod
 146:.\Generated_Source\PSoC4/PWM.c ****         PWM_WriteCompare(PWM_PWM_COMPARE_VALUE);
  73              		.loc 1 146 0
  74 003a FA23     		mov	r3, #250
  75 003c 5B00     		lsl	r3, r3, #1
  76 003e 181C     		mov	r0, r3
  77 0040 FFF7FEFF 		bl	PWM_WriteCompare
 147:.\Generated_Source\PSoC4/PWM.c **** 
 148:.\Generated_Source\PSoC4/PWM.c ****         #if (1u == PWM_PWM_COMPARE_SWAP)
 149:.\Generated_Source\PSoC4/PWM.c ****             PWM_SetCompareSwap(1u);
 150:.\Generated_Source\PSoC4/PWM.c ****             PWM_WriteCompareBuf(PWM_PWM_COMPARE_BUF_VALUE);
 151:.\Generated_Source\PSoC4/PWM.c ****         #endif  /* (1u == PWM_PWM_COMPARE_SWAP) */
ARM GAS  C:\Users\Terrance\AppData\Local\Temp\ccHh2A52.s 			page 5


 152:.\Generated_Source\PSoC4/PWM.c **** 
 153:.\Generated_Source\PSoC4/PWM.c ****         #if (1u == PWM_PWM_PERIOD_SWAP)
 154:.\Generated_Source\PSoC4/PWM.c ****             PWM_SetPeriodSwap(1u);
 155:.\Generated_Source\PSoC4/PWM.c ****             PWM_WritePeriodBuf(PWM_PWM_PERIOD_BUF_VALUE);
 156:.\Generated_Source\PSoC4/PWM.c ****         #endif  /* (1u == PWM_PWM_PERIOD_SWAP) */
 157:.\Generated_Source\PSoC4/PWM.c **** 
 158:.\Generated_Source\PSoC4/PWM.c ****         /* Set values from customizer to CTRL2 */
 159:.\Generated_Source\PSoC4/PWM.c ****         #if (PWM__PWM_PR == PWM_PWM_MODE)
 160:.\Generated_Source\PSoC4/PWM.c ****             PWM_TRIG_CONTROL2_REG =
 161:.\Generated_Source\PSoC4/PWM.c ****                     (PWM_CC_MATCH_NO_CHANGE    |
 162:.\Generated_Source\PSoC4/PWM.c ****                     PWM_OVERLOW_NO_CHANGE      |
 163:.\Generated_Source\PSoC4/PWM.c ****                     PWM_UNDERFLOW_NO_CHANGE);
 164:.\Generated_Source\PSoC4/PWM.c ****         #else
 165:.\Generated_Source\PSoC4/PWM.c ****             #if (PWM__LEFT == PWM_PWM_ALIGN)
 166:.\Generated_Source\PSoC4/PWM.c ****                 PWM_TRIG_CONTROL2_REG = PWM_PWM_MODE_LEFT;
 167:.\Generated_Source\PSoC4/PWM.c ****             #endif  /* ( PWM_PWM_LEFT == PWM_PWM_ALIGN) */
 168:.\Generated_Source\PSoC4/PWM.c **** 
 169:.\Generated_Source\PSoC4/PWM.c ****             #if (PWM__RIGHT == PWM_PWM_ALIGN)
 170:.\Generated_Source\PSoC4/PWM.c ****                 PWM_WriteCounter(PWM_PWM_PERIOD_VALUE);
  78              		.loc 1 170 0
  79 0044 FA23     		mov	r3, #250
  80 0046 9B00     		lsl	r3, r3, #2
  81 0048 181C     		mov	r0, r3
  82 004a FFF7FEFF 		bl	PWM_WriteCounter
 171:.\Generated_Source\PSoC4/PWM.c ****                 PWM_TRIG_CONTROL2_REG = PWM_PWM_MODE_RIGHT;
  83              		.loc 1 171 0
  84 004e 044B     		ldr	r3, .L2+8
  85 0050 1C22     		mov	r2, #28
  86 0052 1A60     		str	r2, [r3]
 172:.\Generated_Source\PSoC4/PWM.c ****             #endif  /* ( PWM_PWM_RIGHT == PWM_PWM_ALIGN) */
 173:.\Generated_Source\PSoC4/PWM.c **** 
 174:.\Generated_Source\PSoC4/PWM.c ****             #if (PWM__CENTER == PWM_PWM_ALIGN)
 175:.\Generated_Source\PSoC4/PWM.c ****                 PWM_TRIG_CONTROL2_REG = PWM_PWM_MODE_CENTER;
 176:.\Generated_Source\PSoC4/PWM.c ****             #endif  /* ( PWM_PWM_CENTER == PWM_PWM_ALIGN) */
 177:.\Generated_Source\PSoC4/PWM.c **** 
 178:.\Generated_Source\PSoC4/PWM.c ****             #if (PWM__ASYMMETRIC == PWM_PWM_ALIGN)
 179:.\Generated_Source\PSoC4/PWM.c ****                 PWM_TRIG_CONTROL2_REG = PWM_PWM_MODE_ASYM;
 180:.\Generated_Source\PSoC4/PWM.c ****             #endif  /* (PWM__ASYMMETRIC == PWM_PWM_ALIGN) */
 181:.\Generated_Source\PSoC4/PWM.c ****         #endif  /* (PWM__PWM_PR == PWM_PWM_MODE) */
 182:.\Generated_Source\PSoC4/PWM.c ****     #endif  /* (PWM__PWM_SEL == PWM_CONFIG) */
 183:.\Generated_Source\PSoC4/PWM.c **** }
  87              		.loc 1 183 0
  88 0054 BD46     		mov	sp, r7
  89              		@ sp needed for prologue
  90 0056 80BD     		pop	{r7, pc}
  91              	.L3:
  92              		.align	2
  93              	.L2:
  94 0058 00010540 		.word	1074069760
  95 005c 24010540 		.word	1074069796
  96 0060 28010540 		.word	1074069800
  97              		.cfi_endproc
  98              	.LFE0:
  99              		.size	PWM_Init, .-PWM_Init
 100              		.section	.text.PWM_Enable,"ax",%progbits
 101              		.align	2
 102              		.global	PWM_Enable
ARM GAS  C:\Users\Terrance\AppData\Local\Temp\ccHh2A52.s 			page 6


 103              		.code	16
 104              		.thumb_func
 105              		.type	PWM_Enable, %function
 106              	PWM_Enable:
 107              	.LFB1:
 184:.\Generated_Source\PSoC4/PWM.c **** 
 185:.\Generated_Source\PSoC4/PWM.c **** 
 186:.\Generated_Source\PSoC4/PWM.c **** /*******************************************************************************
 187:.\Generated_Source\PSoC4/PWM.c **** * Function Name: PWM_Enable
 188:.\Generated_Source\PSoC4/PWM.c **** ********************************************************************************
 189:.\Generated_Source\PSoC4/PWM.c **** *
 190:.\Generated_Source\PSoC4/PWM.c **** * Summary:
 191:.\Generated_Source\PSoC4/PWM.c **** *  Enables the PWM.
 192:.\Generated_Source\PSoC4/PWM.c **** *
 193:.\Generated_Source\PSoC4/PWM.c **** * Parameters:
 194:.\Generated_Source\PSoC4/PWM.c **** *  None
 195:.\Generated_Source\PSoC4/PWM.c **** *
 196:.\Generated_Source\PSoC4/PWM.c **** * Return:
 197:.\Generated_Source\PSoC4/PWM.c **** *  None
 198:.\Generated_Source\PSoC4/PWM.c **** *
 199:.\Generated_Source\PSoC4/PWM.c **** *******************************************************************************/
 200:.\Generated_Source\PSoC4/PWM.c **** void PWM_Enable(void)
 201:.\Generated_Source\PSoC4/PWM.c **** {
 108              		.loc 1 201 0
 109              		.cfi_startproc
 110 0000 90B5     		push	{r4, r7, lr}
 111              	.LCFI2:
 112              		.cfi_def_cfa_offset 12
 113              		.cfi_offset 4, -12
 114              		.cfi_offset 7, -8
 115              		.cfi_offset 14, -4
 116 0002 83B0     		sub	sp, sp, #12
 117              	.LCFI3:
 118              		.cfi_def_cfa_offset 24
 119 0004 00AF     		add	r7, sp, #0
 120              	.LCFI4:
 121              		.cfi_def_cfa_register 7
 202:.\Generated_Source\PSoC4/PWM.c ****     uint8 enableInterrupts;
 203:.\Generated_Source\PSoC4/PWM.c **** 
 204:.\Generated_Source\PSoC4/PWM.c ****     enableInterrupts = CyEnterCriticalSection();
 122              		.loc 1 204 0
 123 0006 FC1D     		add	r4, r7, #7
 124 0008 FFF7FEFF 		bl	CyEnterCriticalSection
 125 000c 031C     		mov	r3, r0
 126 000e 2370     		strb	r3, [r4]
 205:.\Generated_Source\PSoC4/PWM.c ****     PWM_BLOCK_CONTROL_REG |= PWM_MASK;
 127              		.loc 1 205 0
 128 0010 064B     		ldr	r3, .L5
 129 0012 064A     		ldr	r2, .L5
 130 0014 1268     		ldr	r2, [r2]
 131 0016 0121     		mov	r1, #1
 132 0018 0A43     		orr	r2, r1
 133 001a 1A60     		str	r2, [r3]
 206:.\Generated_Source\PSoC4/PWM.c ****     CyExitCriticalSection(enableInterrupts);
 134              		.loc 1 206 0
 135 001c FB1D     		add	r3, r7, #7
 136 001e 1B78     		ldrb	r3, [r3]
ARM GAS  C:\Users\Terrance\AppData\Local\Temp\ccHh2A52.s 			page 7


 137 0020 181C     		mov	r0, r3
 138 0022 FFF7FEFF 		bl	CyExitCriticalSection
 207:.\Generated_Source\PSoC4/PWM.c **** 
 208:.\Generated_Source\PSoC4/PWM.c ****     /* Start Timer or PWM if start input is absent */
 209:.\Generated_Source\PSoC4/PWM.c ****     #if (PWM__PWM_SEL == PWM_CONFIG)
 210:.\Generated_Source\PSoC4/PWM.c ****         #if (0u == PWM_PWM_START_SIGNAL_PRESENT)
 211:.\Generated_Source\PSoC4/PWM.c ****             PWM_TriggerCommand(PWM_MASK, PWM_CMD_START);
 212:.\Generated_Source\PSoC4/PWM.c ****         #endif /* (0u == PWM_PWM_START_SIGNAL_PRESENT) */
 213:.\Generated_Source\PSoC4/PWM.c ****     #endif /* (PWM__PWM_SEL == PWM_CONFIG) */
 214:.\Generated_Source\PSoC4/PWM.c **** 
 215:.\Generated_Source\PSoC4/PWM.c ****     #if (PWM__TIMER == PWM_CONFIG)
 216:.\Generated_Source\PSoC4/PWM.c ****         #if (0u == PWM_TC_START_SIGNAL_PRESENT)
 217:.\Generated_Source\PSoC4/PWM.c ****             PWM_TriggerCommand(PWM_MASK, PWM_CMD_START);
 218:.\Generated_Source\PSoC4/PWM.c ****         #endif /* (0u == PWM_TC_START_SIGNAL_PRESENT) */
 219:.\Generated_Source\PSoC4/PWM.c ****     #endif /* (PWM__TIMER == PWM_CONFIG) */
 220:.\Generated_Source\PSoC4/PWM.c **** }
 139              		.loc 1 220 0
 140 0026 BD46     		mov	sp, r7
 141 0028 03B0     		add	sp, sp, #12
 142              		@ sp needed for prologue
 143 002a 90BD     		pop	{r4, r7, pc}
 144              	.L6:
 145              		.align	2
 146              	.L5:
 147 002c 00000540 		.word	1074069504
 148              		.cfi_endproc
 149              	.LFE1:
 150              		.size	PWM_Enable, .-PWM_Enable
 151              		.section	.text.PWM_Start,"ax",%progbits
 152              		.align	2
 153              		.global	PWM_Start
 154              		.code	16
 155              		.thumb_func
 156              		.type	PWM_Start, %function
 157              	PWM_Start:
 158              	.LFB2:
 221:.\Generated_Source\PSoC4/PWM.c **** 
 222:.\Generated_Source\PSoC4/PWM.c **** 
 223:.\Generated_Source\PSoC4/PWM.c **** /*******************************************************************************
 224:.\Generated_Source\PSoC4/PWM.c **** * Function Name: PWM_Start
 225:.\Generated_Source\PSoC4/PWM.c **** ********************************************************************************
 226:.\Generated_Source\PSoC4/PWM.c **** *
 227:.\Generated_Source\PSoC4/PWM.c **** * Summary:
 228:.\Generated_Source\PSoC4/PWM.c **** *  Initializes the PWM with default customizer
 229:.\Generated_Source\PSoC4/PWM.c **** *  values when called the first time and enables the PWM.
 230:.\Generated_Source\PSoC4/PWM.c **** *  For subsequent calls the configuration is left unchanged and the component is
 231:.\Generated_Source\PSoC4/PWM.c **** *  just enabled.
 232:.\Generated_Source\PSoC4/PWM.c **** *
 233:.\Generated_Source\PSoC4/PWM.c **** * Parameters:
 234:.\Generated_Source\PSoC4/PWM.c **** *  None
 235:.\Generated_Source\PSoC4/PWM.c **** *
 236:.\Generated_Source\PSoC4/PWM.c **** * Return:
 237:.\Generated_Source\PSoC4/PWM.c **** *  None
 238:.\Generated_Source\PSoC4/PWM.c **** *
 239:.\Generated_Source\PSoC4/PWM.c **** * Global variables:
 240:.\Generated_Source\PSoC4/PWM.c **** *  PWM_initVar: global variable is used to indicate initial
 241:.\Generated_Source\PSoC4/PWM.c **** *  configuration of this component.  The variable is initialized to zero and set
ARM GAS  C:\Users\Terrance\AppData\Local\Temp\ccHh2A52.s 			page 8


 242:.\Generated_Source\PSoC4/PWM.c **** *  to 1 the first time PWM_Start() is called. This allows
 243:.\Generated_Source\PSoC4/PWM.c **** *  enabling/disabling a component without re-initialization in all subsequent
 244:.\Generated_Source\PSoC4/PWM.c **** *  calls to the PWM_Start() routine.
 245:.\Generated_Source\PSoC4/PWM.c **** *
 246:.\Generated_Source\PSoC4/PWM.c **** *******************************************************************************/
 247:.\Generated_Source\PSoC4/PWM.c **** void PWM_Start(void)
 248:.\Generated_Source\PSoC4/PWM.c **** {
 159              		.loc 1 248 0
 160              		.cfi_startproc
 161 0000 80B5     		push	{r7, lr}
 162              	.LCFI5:
 163              		.cfi_def_cfa_offset 8
 164              		.cfi_offset 7, -8
 165              		.cfi_offset 14, -4
 166 0002 00AF     		add	r7, sp, #0
 167              	.LCFI6:
 168              		.cfi_def_cfa_register 7
 249:.\Generated_Source\PSoC4/PWM.c ****     if (0u == PWM_initVar)
 169              		.loc 1 249 0
 170 0004 064B     		ldr	r3, .L9
 171 0006 1B78     		ldrb	r3, [r3]
 172 0008 002B     		cmp	r3, #0
 173 000a 04D1     		bne	.L8
 250:.\Generated_Source\PSoC4/PWM.c ****     {
 251:.\Generated_Source\PSoC4/PWM.c ****         PWM_Init();
 174              		.loc 1 251 0
 175 000c FFF7FEFF 		bl	PWM_Init
 252:.\Generated_Source\PSoC4/PWM.c ****         PWM_initVar = 1u;
 176              		.loc 1 252 0
 177 0010 034B     		ldr	r3, .L9
 178 0012 0122     		mov	r2, #1
 179 0014 1A70     		strb	r2, [r3]
 180              	.L8:
 253:.\Generated_Source\PSoC4/PWM.c ****     }
 254:.\Generated_Source\PSoC4/PWM.c **** 
 255:.\Generated_Source\PSoC4/PWM.c ****     PWM_Enable();
 181              		.loc 1 255 0
 182 0016 FFF7FEFF 		bl	PWM_Enable
 256:.\Generated_Source\PSoC4/PWM.c **** }
 183              		.loc 1 256 0
 184 001a BD46     		mov	sp, r7
 185              		@ sp needed for prologue
 186 001c 80BD     		pop	{r7, pc}
 187              	.L10:
 188 001e C046     		.align	2
 189              	.L9:
 190 0020 00000000 		.word	PWM_initVar
 191              		.cfi_endproc
 192              	.LFE2:
 193              		.size	PWM_Start, .-PWM_Start
 194              		.section	.text.PWM_Stop,"ax",%progbits
 195              		.align	2
 196              		.global	PWM_Stop
 197              		.code	16
 198              		.thumb_func
 199              		.type	PWM_Stop, %function
 200              	PWM_Stop:
ARM GAS  C:\Users\Terrance\AppData\Local\Temp\ccHh2A52.s 			page 9


 201              	.LFB3:
 257:.\Generated_Source\PSoC4/PWM.c **** 
 258:.\Generated_Source\PSoC4/PWM.c **** 
 259:.\Generated_Source\PSoC4/PWM.c **** /*******************************************************************************
 260:.\Generated_Source\PSoC4/PWM.c **** * Function Name: PWM_Stop
 261:.\Generated_Source\PSoC4/PWM.c **** ********************************************************************************
 262:.\Generated_Source\PSoC4/PWM.c **** *
 263:.\Generated_Source\PSoC4/PWM.c **** * Summary:
 264:.\Generated_Source\PSoC4/PWM.c **** *  Disables the PWM.
 265:.\Generated_Source\PSoC4/PWM.c **** *
 266:.\Generated_Source\PSoC4/PWM.c **** * Parameters:
 267:.\Generated_Source\PSoC4/PWM.c **** *  None
 268:.\Generated_Source\PSoC4/PWM.c **** *
 269:.\Generated_Source\PSoC4/PWM.c **** * Return:
 270:.\Generated_Source\PSoC4/PWM.c **** *  None
 271:.\Generated_Source\PSoC4/PWM.c **** *
 272:.\Generated_Source\PSoC4/PWM.c **** *******************************************************************************/
 273:.\Generated_Source\PSoC4/PWM.c **** void PWM_Stop(void)
 274:.\Generated_Source\PSoC4/PWM.c **** {
 202              		.loc 1 274 0
 203              		.cfi_startproc
 204 0000 90B5     		push	{r4, r7, lr}
 205              	.LCFI7:
 206              		.cfi_def_cfa_offset 12
 207              		.cfi_offset 4, -12
 208              		.cfi_offset 7, -8
 209              		.cfi_offset 14, -4
 210 0002 83B0     		sub	sp, sp, #12
 211              	.LCFI8:
 212              		.cfi_def_cfa_offset 24
 213 0004 00AF     		add	r7, sp, #0
 214              	.LCFI9:
 215              		.cfi_def_cfa_register 7
 275:.\Generated_Source\PSoC4/PWM.c ****     uint8 enableInterrupts;
 276:.\Generated_Source\PSoC4/PWM.c **** 
 277:.\Generated_Source\PSoC4/PWM.c ****     enableInterrupts = CyEnterCriticalSection();
 216              		.loc 1 277 0
 217 0006 FC1D     		add	r4, r7, #7
 218 0008 FFF7FEFF 		bl	CyEnterCriticalSection
 219 000c 031C     		mov	r3, r0
 220 000e 2370     		strb	r3, [r4]
 278:.\Generated_Source\PSoC4/PWM.c **** 
 279:.\Generated_Source\PSoC4/PWM.c ****     PWM_BLOCK_CONTROL_REG &= (uint32)~PWM_MASK;
 221              		.loc 1 279 0
 222 0010 064B     		ldr	r3, .L12
 223 0012 064A     		ldr	r2, .L12
 224 0014 1268     		ldr	r2, [r2]
 225 0016 0121     		mov	r1, #1
 226 0018 8A43     		bic	r2, r1
 227 001a 1A60     		str	r2, [r3]
 280:.\Generated_Source\PSoC4/PWM.c **** 
 281:.\Generated_Source\PSoC4/PWM.c ****     CyExitCriticalSection(enableInterrupts);
 228              		.loc 1 281 0
 229 001c FB1D     		add	r3, r7, #7
 230 001e 1B78     		ldrb	r3, [r3]
 231 0020 181C     		mov	r0, r3
 232 0022 FFF7FEFF 		bl	CyExitCriticalSection
ARM GAS  C:\Users\Terrance\AppData\Local\Temp\ccHh2A52.s 			page 10


 282:.\Generated_Source\PSoC4/PWM.c **** }
 233              		.loc 1 282 0
 234 0026 BD46     		mov	sp, r7
 235 0028 03B0     		add	sp, sp, #12
 236              		@ sp needed for prologue
 237 002a 90BD     		pop	{r4, r7, pc}
 238              	.L13:
 239              		.align	2
 240              	.L12:
 241 002c 00000540 		.word	1074069504
 242              		.cfi_endproc
 243              	.LFE3:
 244              		.size	PWM_Stop, .-PWM_Stop
 245              		.section	.text.PWM_SetMode,"ax",%progbits
 246              		.align	2
 247              		.global	PWM_SetMode
 248              		.code	16
 249              		.thumb_func
 250              		.type	PWM_SetMode, %function
 251              	PWM_SetMode:
 252              	.LFB4:
 283:.\Generated_Source\PSoC4/PWM.c **** 
 284:.\Generated_Source\PSoC4/PWM.c **** 
 285:.\Generated_Source\PSoC4/PWM.c **** /*******************************************************************************
 286:.\Generated_Source\PSoC4/PWM.c **** * Function Name: PWM_SetMode
 287:.\Generated_Source\PSoC4/PWM.c **** ********************************************************************************
 288:.\Generated_Source\PSoC4/PWM.c **** *
 289:.\Generated_Source\PSoC4/PWM.c **** * Summary:
 290:.\Generated_Source\PSoC4/PWM.c **** *  Sets the operation mode of the PWM. This function is used when
 291:.\Generated_Source\PSoC4/PWM.c **** *  configured as a generic PWM and the actual mode of operation is
 292:.\Generated_Source\PSoC4/PWM.c **** *  set at runtime. The mode must be set while the component is disabled.
 293:.\Generated_Source\PSoC4/PWM.c **** *
 294:.\Generated_Source\PSoC4/PWM.c **** * Parameters:
 295:.\Generated_Source\PSoC4/PWM.c **** *  mode: Mode for the PWM to operate in
 296:.\Generated_Source\PSoC4/PWM.c **** *   Values:
 297:.\Generated_Source\PSoC4/PWM.c **** *   - PWM_MODE_TIMER_COMPARE - Timer / Counter with
 298:.\Generated_Source\PSoC4/PWM.c **** *                                                 compare capability
 299:.\Generated_Source\PSoC4/PWM.c **** *         - PWM_MODE_TIMER_CAPTURE - Timer / Counter with
 300:.\Generated_Source\PSoC4/PWM.c **** *                                                 capture capability
 301:.\Generated_Source\PSoC4/PWM.c **** *         - PWM_MODE_QUAD - Quadrature decoder
 302:.\Generated_Source\PSoC4/PWM.c **** *         - PWM_MODE_PWM - PWM
 303:.\Generated_Source\PSoC4/PWM.c **** *         - PWM_MODE_PWM_DT - PWM with dead time
 304:.\Generated_Source\PSoC4/PWM.c **** *         - PWM_MODE_PWM_PR - PWM with pseudo random capability
 305:.\Generated_Source\PSoC4/PWM.c **** *
 306:.\Generated_Source\PSoC4/PWM.c **** * Return:
 307:.\Generated_Source\PSoC4/PWM.c **** *  None
 308:.\Generated_Source\PSoC4/PWM.c **** *
 309:.\Generated_Source\PSoC4/PWM.c **** *******************************************************************************/
 310:.\Generated_Source\PSoC4/PWM.c **** void PWM_SetMode(uint32 mode)
 311:.\Generated_Source\PSoC4/PWM.c **** {
 253              		.loc 1 311 0
 254              		.cfi_startproc
 255 0000 90B5     		push	{r4, r7, lr}
 256              	.LCFI10:
 257              		.cfi_def_cfa_offset 12
 258              		.cfi_offset 4, -12
 259              		.cfi_offset 7, -8
ARM GAS  C:\Users\Terrance\AppData\Local\Temp\ccHh2A52.s 			page 11


 260              		.cfi_offset 14, -4
 261 0002 85B0     		sub	sp, sp, #20
 262              	.LCFI11:
 263              		.cfi_def_cfa_offset 32
 264 0004 00AF     		add	r7, sp, #0
 265              	.LCFI12:
 266              		.cfi_def_cfa_register 7
 267 0006 7860     		str	r0, [r7, #4]
 312:.\Generated_Source\PSoC4/PWM.c ****     uint8 enableInterrupts;
 313:.\Generated_Source\PSoC4/PWM.c **** 
 314:.\Generated_Source\PSoC4/PWM.c ****     enableInterrupts = CyEnterCriticalSection();
 268              		.loc 1 314 0
 269 0008 3C1C     		mov	r4, r7
 270 000a 0F34     		add	r4, r4, #15
 271 000c FFF7FEFF 		bl	CyEnterCriticalSection
 272 0010 031C     		mov	r3, r0
 273 0012 2370     		strb	r3, [r4]
 315:.\Generated_Source\PSoC4/PWM.c **** 
 316:.\Generated_Source\PSoC4/PWM.c ****     PWM_CONTROL_REG &= (uint32)~PWM_MODE_MASK;
 274              		.loc 1 316 0
 275 0014 0A4B     		ldr	r3, .L15
 276 0016 0A4A     		ldr	r2, .L15
 277 0018 1168     		ldr	r1, [r2]
 278 001a 0A4A     		ldr	r2, .L15+4
 279 001c 0A40     		and	r2, r1
 280 001e 1A60     		str	r2, [r3]
 317:.\Generated_Source\PSoC4/PWM.c ****     PWM_CONTROL_REG |= mode;
 281              		.loc 1 317 0
 282 0020 074B     		ldr	r3, .L15
 283 0022 074A     		ldr	r2, .L15
 284 0024 1168     		ldr	r1, [r2]
 285 0026 7A68     		ldr	r2, [r7, #4]
 286 0028 0A43     		orr	r2, r1
 287 002a 1A60     		str	r2, [r3]
 318:.\Generated_Source\PSoC4/PWM.c **** 
 319:.\Generated_Source\PSoC4/PWM.c ****     CyExitCriticalSection(enableInterrupts);
 288              		.loc 1 319 0
 289 002c 3B1C     		mov	r3, r7
 290 002e 0F33     		add	r3, r3, #15
 291 0030 1B78     		ldrb	r3, [r3]
 292 0032 181C     		mov	r0, r3
 293 0034 FFF7FEFF 		bl	CyExitCriticalSection
 320:.\Generated_Source\PSoC4/PWM.c **** }
 294              		.loc 1 320 0
 295 0038 BD46     		mov	sp, r7
 296 003a 05B0     		add	sp, sp, #20
 297              		@ sp needed for prologue
 298 003c 90BD     		pop	{r4, r7, pc}
 299              	.L16:
 300 003e C046     		.align	2
 301              	.L15:
 302 0040 00010540 		.word	1074069760
 303 0044 FFFFFFF8 		.word	-117440513
 304              		.cfi_endproc
 305              	.LFE4:
 306              		.size	PWM_SetMode, .-PWM_SetMode
 307              		.section	.text.PWM_SetQDMode,"ax",%progbits
ARM GAS  C:\Users\Terrance\AppData\Local\Temp\ccHh2A52.s 			page 12


 308              		.align	2
 309              		.global	PWM_SetQDMode
 310              		.code	16
 311              		.thumb_func
 312              		.type	PWM_SetQDMode, %function
 313              	PWM_SetQDMode:
 314              	.LFB5:
 321:.\Generated_Source\PSoC4/PWM.c **** 
 322:.\Generated_Source\PSoC4/PWM.c **** 
 323:.\Generated_Source\PSoC4/PWM.c **** /*******************************************************************************
 324:.\Generated_Source\PSoC4/PWM.c **** * Function Name: PWM_SetQDMode
 325:.\Generated_Source\PSoC4/PWM.c **** ********************************************************************************
 326:.\Generated_Source\PSoC4/PWM.c **** *
 327:.\Generated_Source\PSoC4/PWM.c **** * Summary:
 328:.\Generated_Source\PSoC4/PWM.c **** *  Sets the the Quadrature Decoder to one of the 3 supported modes.
 329:.\Generated_Source\PSoC4/PWM.c **** *  Its functionality is only applicable to Quadrature Decoder operation.
 330:.\Generated_Source\PSoC4/PWM.c **** *
 331:.\Generated_Source\PSoC4/PWM.c **** * Parameters:
 332:.\Generated_Source\PSoC4/PWM.c **** *  qdMode: Quadrature Decoder mode
 333:.\Generated_Source\PSoC4/PWM.c **** *   Values:
 334:.\Generated_Source\PSoC4/PWM.c **** *         - PWM_MODE_X1 - Counts on phi 1 rising
 335:.\Generated_Source\PSoC4/PWM.c **** *         - PWM_MODE_X2 - Counts on both edges of phi1 (2x faster)
 336:.\Generated_Source\PSoC4/PWM.c **** *         - PWM_MODE_X4 - Counts on both edges of phi1 and phi2
 337:.\Generated_Source\PSoC4/PWM.c **** *                                        (4x faster)
 338:.\Generated_Source\PSoC4/PWM.c **** *
 339:.\Generated_Source\PSoC4/PWM.c **** * Return:
 340:.\Generated_Source\PSoC4/PWM.c **** *  None
 341:.\Generated_Source\PSoC4/PWM.c **** *
 342:.\Generated_Source\PSoC4/PWM.c **** *******************************************************************************/
 343:.\Generated_Source\PSoC4/PWM.c **** void PWM_SetQDMode(uint32 qdMode)
 344:.\Generated_Source\PSoC4/PWM.c **** {
 315              		.loc 1 344 0
 316              		.cfi_startproc
 317 0000 90B5     		push	{r4, r7, lr}
 318              	.LCFI13:
 319              		.cfi_def_cfa_offset 12
 320              		.cfi_offset 4, -12
 321              		.cfi_offset 7, -8
 322              		.cfi_offset 14, -4
 323 0002 85B0     		sub	sp, sp, #20
 324              	.LCFI14:
 325              		.cfi_def_cfa_offset 32
 326 0004 00AF     		add	r7, sp, #0
 327              	.LCFI15:
 328              		.cfi_def_cfa_register 7
 329 0006 7860     		str	r0, [r7, #4]
 345:.\Generated_Source\PSoC4/PWM.c ****     uint8 enableInterrupts;
 346:.\Generated_Source\PSoC4/PWM.c **** 
 347:.\Generated_Source\PSoC4/PWM.c ****     enableInterrupts = CyEnterCriticalSection();
 330              		.loc 1 347 0
 331 0008 3C1C     		mov	r4, r7
 332 000a 0F34     		add	r4, r4, #15
 333 000c FFF7FEFF 		bl	CyEnterCriticalSection
 334 0010 031C     		mov	r3, r0
 335 0012 2370     		strb	r3, [r4]
 348:.\Generated_Source\PSoC4/PWM.c **** 
 349:.\Generated_Source\PSoC4/PWM.c ****     PWM_CONTROL_REG &= (uint32)~PWM_QUAD_MODE_MASK;
ARM GAS  C:\Users\Terrance\AppData\Local\Temp\ccHh2A52.s 			page 13


 336              		.loc 1 349 0
 337 0014 0A4B     		ldr	r3, .L18
 338 0016 0A4A     		ldr	r2, .L18
 339 0018 1168     		ldr	r1, [r2]
 340 001a 0A4A     		ldr	r2, .L18+4
 341 001c 0A40     		and	r2, r1
 342 001e 1A60     		str	r2, [r3]
 350:.\Generated_Source\PSoC4/PWM.c ****     PWM_CONTROL_REG |= qdMode;
 343              		.loc 1 350 0
 344 0020 074B     		ldr	r3, .L18
 345 0022 074A     		ldr	r2, .L18
 346 0024 1168     		ldr	r1, [r2]
 347 0026 7A68     		ldr	r2, [r7, #4]
 348 0028 0A43     		orr	r2, r1
 349 002a 1A60     		str	r2, [r3]
 351:.\Generated_Source\PSoC4/PWM.c **** 
 352:.\Generated_Source\PSoC4/PWM.c ****     CyExitCriticalSection(enableInterrupts);
 350              		.loc 1 352 0
 351 002c 3B1C     		mov	r3, r7
 352 002e 0F33     		add	r3, r3, #15
 353 0030 1B78     		ldrb	r3, [r3]
 354 0032 181C     		mov	r0, r3
 355 0034 FFF7FEFF 		bl	CyExitCriticalSection
 353:.\Generated_Source\PSoC4/PWM.c **** }
 356              		.loc 1 353 0
 357 0038 BD46     		mov	sp, r7
 358 003a 05B0     		add	sp, sp, #20
 359              		@ sp needed for prologue
 360 003c 90BD     		pop	{r4, r7, pc}
 361              	.L19:
 362 003e C046     		.align	2
 363              	.L18:
 364 0040 00010540 		.word	1074069760
 365 0044 FFFF8FFF 		.word	-7340033
 366              		.cfi_endproc
 367              	.LFE5:
 368              		.size	PWM_SetQDMode, .-PWM_SetQDMode
 369              		.section	.text.PWM_SetPrescaler,"ax",%progbits
 370              		.align	2
 371              		.global	PWM_SetPrescaler
 372              		.code	16
 373              		.thumb_func
 374              		.type	PWM_SetPrescaler, %function
 375              	PWM_SetPrescaler:
 376              	.LFB6:
 354:.\Generated_Source\PSoC4/PWM.c **** 
 355:.\Generated_Source\PSoC4/PWM.c **** 
 356:.\Generated_Source\PSoC4/PWM.c **** /*******************************************************************************
 357:.\Generated_Source\PSoC4/PWM.c **** * Function Name: PWM_SetPrescaler
 358:.\Generated_Source\PSoC4/PWM.c **** ********************************************************************************
 359:.\Generated_Source\PSoC4/PWM.c **** *
 360:.\Generated_Source\PSoC4/PWM.c **** * Summary:
 361:.\Generated_Source\PSoC4/PWM.c **** *  Sets the prescaler value that is applied to the clock input.  Not applicable
 362:.\Generated_Source\PSoC4/PWM.c **** *  to a PWM with the dead time mode or Quadrature Decoder mode.
 363:.\Generated_Source\PSoC4/PWM.c **** *
 364:.\Generated_Source\PSoC4/PWM.c **** * Parameters:
 365:.\Generated_Source\PSoC4/PWM.c **** *  prescaler: Prescaler divider value
ARM GAS  C:\Users\Terrance\AppData\Local\Temp\ccHh2A52.s 			page 14


 366:.\Generated_Source\PSoC4/PWM.c **** *   Values:
 367:.\Generated_Source\PSoC4/PWM.c **** *         - PWM_PRESCALE_DIVBY1    - Divide by 1 (no prescaling)
 368:.\Generated_Source\PSoC4/PWM.c **** *         - PWM_PRESCALE_DIVBY2    - Divide by 2
 369:.\Generated_Source\PSoC4/PWM.c **** *         - PWM_PRESCALE_DIVBY4    - Divide by 4
 370:.\Generated_Source\PSoC4/PWM.c **** *         - PWM_PRESCALE_DIVBY8    - Divide by 8
 371:.\Generated_Source\PSoC4/PWM.c **** *         - PWM_PRESCALE_DIVBY16   - Divide by 16
 372:.\Generated_Source\PSoC4/PWM.c **** *         - PWM_PRESCALE_DIVBY32   - Divide by 32
 373:.\Generated_Source\PSoC4/PWM.c **** *         - PWM_PRESCALE_DIVBY64   - Divide by 64
 374:.\Generated_Source\PSoC4/PWM.c **** *         - PWM_PRESCALE_DIVBY128  - Divide by 128
 375:.\Generated_Source\PSoC4/PWM.c **** *
 376:.\Generated_Source\PSoC4/PWM.c **** * Return:
 377:.\Generated_Source\PSoC4/PWM.c **** *  None
 378:.\Generated_Source\PSoC4/PWM.c **** *
 379:.\Generated_Source\PSoC4/PWM.c **** *******************************************************************************/
 380:.\Generated_Source\PSoC4/PWM.c **** void PWM_SetPrescaler(uint32 prescaler)
 381:.\Generated_Source\PSoC4/PWM.c **** {
 377              		.loc 1 381 0
 378              		.cfi_startproc
 379 0000 90B5     		push	{r4, r7, lr}
 380              	.LCFI16:
 381              		.cfi_def_cfa_offset 12
 382              		.cfi_offset 4, -12
 383              		.cfi_offset 7, -8
 384              		.cfi_offset 14, -4
 385 0002 85B0     		sub	sp, sp, #20
 386              	.LCFI17:
 387              		.cfi_def_cfa_offset 32
 388 0004 00AF     		add	r7, sp, #0
 389              	.LCFI18:
 390              		.cfi_def_cfa_register 7
 391 0006 7860     		str	r0, [r7, #4]
 382:.\Generated_Source\PSoC4/PWM.c ****     uint8 enableInterrupts;
 383:.\Generated_Source\PSoC4/PWM.c **** 
 384:.\Generated_Source\PSoC4/PWM.c ****     enableInterrupts = CyEnterCriticalSection();
 392              		.loc 1 384 0
 393 0008 3C1C     		mov	r4, r7
 394 000a 0F34     		add	r4, r4, #15
 395 000c FFF7FEFF 		bl	CyEnterCriticalSection
 396 0010 031C     		mov	r3, r0
 397 0012 2370     		strb	r3, [r4]
 385:.\Generated_Source\PSoC4/PWM.c **** 
 386:.\Generated_Source\PSoC4/PWM.c ****     PWM_CONTROL_REG &= (uint32)~PWM_PRESCALER_MASK;
 398              		.loc 1 386 0
 399 0014 0A4B     		ldr	r3, .L21
 400 0016 0A4A     		ldr	r2, .L21
 401 0018 1168     		ldr	r1, [r2]
 402 001a 0A4A     		ldr	r2, .L21+4
 403 001c 0A40     		and	r2, r1
 404 001e 1A60     		str	r2, [r3]
 387:.\Generated_Source\PSoC4/PWM.c ****     PWM_CONTROL_REG |= prescaler;
 405              		.loc 1 387 0
 406 0020 074B     		ldr	r3, .L21
 407 0022 074A     		ldr	r2, .L21
 408 0024 1168     		ldr	r1, [r2]
 409 0026 7A68     		ldr	r2, [r7, #4]
 410 0028 0A43     		orr	r2, r1
 411 002a 1A60     		str	r2, [r3]
ARM GAS  C:\Users\Terrance\AppData\Local\Temp\ccHh2A52.s 			page 15


 388:.\Generated_Source\PSoC4/PWM.c **** 
 389:.\Generated_Source\PSoC4/PWM.c ****     CyExitCriticalSection(enableInterrupts);
 412              		.loc 1 389 0
 413 002c 3B1C     		mov	r3, r7
 414 002e 0F33     		add	r3, r3, #15
 415 0030 1B78     		ldrb	r3, [r3]
 416 0032 181C     		mov	r0, r3
 417 0034 FFF7FEFF 		bl	CyExitCriticalSection
 390:.\Generated_Source\PSoC4/PWM.c **** }
 418              		.loc 1 390 0
 419 0038 BD46     		mov	sp, r7
 420 003a 05B0     		add	sp, sp, #20
 421              		@ sp needed for prologue
 422 003c 90BD     		pop	{r4, r7, pc}
 423              	.L22:
 424 003e C046     		.align	2
 425              	.L21:
 426 0040 00010540 		.word	1074069760
 427 0044 FF00FFFF 		.word	-65281
 428              		.cfi_endproc
 429              	.LFE6:
 430              		.size	PWM_SetPrescaler, .-PWM_SetPrescaler
 431              		.section	.text.PWM_SetOneShot,"ax",%progbits
 432              		.align	2
 433              		.global	PWM_SetOneShot
 434              		.code	16
 435              		.thumb_func
 436              		.type	PWM_SetOneShot, %function
 437              	PWM_SetOneShot:
 438              	.LFB7:
 391:.\Generated_Source\PSoC4/PWM.c **** 
 392:.\Generated_Source\PSoC4/PWM.c **** 
 393:.\Generated_Source\PSoC4/PWM.c **** /*******************************************************************************
 394:.\Generated_Source\PSoC4/PWM.c **** * Function Name: PWM_SetOneShot
 395:.\Generated_Source\PSoC4/PWM.c **** ********************************************************************************
 396:.\Generated_Source\PSoC4/PWM.c **** *
 397:.\Generated_Source\PSoC4/PWM.c **** * Summary:
 398:.\Generated_Source\PSoC4/PWM.c **** *  Writes the register that controls whether the PWM runs
 399:.\Generated_Source\PSoC4/PWM.c **** *  continuously or stops when terminal count is reached.  By default the
 400:.\Generated_Source\PSoC4/PWM.c **** *  PWM operates in the continuous mode.
 401:.\Generated_Source\PSoC4/PWM.c **** *
 402:.\Generated_Source\PSoC4/PWM.c **** * Parameters:
 403:.\Generated_Source\PSoC4/PWM.c **** *  oneShotEnable
 404:.\Generated_Source\PSoC4/PWM.c **** *   Values:
 405:.\Generated_Source\PSoC4/PWM.c **** *     - 0 - Continuous
 406:.\Generated_Source\PSoC4/PWM.c **** *     - 1 - Enable One Shot
 407:.\Generated_Source\PSoC4/PWM.c **** *
 408:.\Generated_Source\PSoC4/PWM.c **** * Return:
 409:.\Generated_Source\PSoC4/PWM.c **** *  None
 410:.\Generated_Source\PSoC4/PWM.c **** *
 411:.\Generated_Source\PSoC4/PWM.c **** *******************************************************************************/
 412:.\Generated_Source\PSoC4/PWM.c **** void PWM_SetOneShot(uint32 oneShotEnable)
 413:.\Generated_Source\PSoC4/PWM.c **** {
 439              		.loc 1 413 0
 440              		.cfi_startproc
 441 0000 90B5     		push	{r4, r7, lr}
 442              	.LCFI19:
ARM GAS  C:\Users\Terrance\AppData\Local\Temp\ccHh2A52.s 			page 16


 443              		.cfi_def_cfa_offset 12
 444              		.cfi_offset 4, -12
 445              		.cfi_offset 7, -8
 446              		.cfi_offset 14, -4
 447 0002 85B0     		sub	sp, sp, #20
 448              	.LCFI20:
 449              		.cfi_def_cfa_offset 32
 450 0004 00AF     		add	r7, sp, #0
 451              	.LCFI21:
 452              		.cfi_def_cfa_register 7
 453 0006 7860     		str	r0, [r7, #4]
 414:.\Generated_Source\PSoC4/PWM.c ****     uint8 enableInterrupts;
 415:.\Generated_Source\PSoC4/PWM.c **** 
 416:.\Generated_Source\PSoC4/PWM.c ****     enableInterrupts = CyEnterCriticalSection();
 454              		.loc 1 416 0
 455 0008 3C1C     		mov	r4, r7
 456 000a 0F34     		add	r4, r4, #15
 457 000c FFF7FEFF 		bl	CyEnterCriticalSection
 458 0010 031C     		mov	r3, r0
 459 0012 2370     		strb	r3, [r4]
 417:.\Generated_Source\PSoC4/PWM.c **** 
 418:.\Generated_Source\PSoC4/PWM.c ****     PWM_CONTROL_REG &= (uint32)~PWM_ONESHOT_MASK;
 460              		.loc 1 418 0
 461 0014 0B4B     		ldr	r3, .L24
 462 0016 0B4A     		ldr	r2, .L24
 463 0018 1168     		ldr	r1, [r2]
 464 001a 0B4A     		ldr	r2, .L24+4
 465 001c 0A40     		and	r2, r1
 466 001e 1A60     		str	r2, [r3]
 419:.\Generated_Source\PSoC4/PWM.c ****     PWM_CONTROL_REG |= ((uint32)((oneShotEnable & PWM_1BIT_MASK) <<
 467              		.loc 1 419 0
 468 0020 084B     		ldr	r3, .L24
 469 0022 084A     		ldr	r2, .L24
 470 0024 1168     		ldr	r1, [r2]
 471 0026 7868     		ldr	r0, [r7, #4]
 472 0028 0122     		mov	r2, #1
 473 002a 0240     		and	r2, r0
 474 002c 9204     		lsl	r2, r2, #18
 475 002e 0A43     		orr	r2, r1
 476 0030 1A60     		str	r2, [r3]
 420:.\Generated_Source\PSoC4/PWM.c ****                                                                PWM_ONESHOT_SHIFT));
 421:.\Generated_Source\PSoC4/PWM.c **** 
 422:.\Generated_Source\PSoC4/PWM.c ****     CyExitCriticalSection(enableInterrupts);
 477              		.loc 1 422 0
 478 0032 3B1C     		mov	r3, r7
 479 0034 0F33     		add	r3, r3, #15
 480 0036 1B78     		ldrb	r3, [r3]
 481 0038 181C     		mov	r0, r3
 482 003a FFF7FEFF 		bl	CyExitCriticalSection
 423:.\Generated_Source\PSoC4/PWM.c **** }
 483              		.loc 1 423 0
 484 003e BD46     		mov	sp, r7
 485 0040 05B0     		add	sp, sp, #20
 486              		@ sp needed for prologue
 487 0042 90BD     		pop	{r4, r7, pc}
 488              	.L25:
 489              		.align	2
ARM GAS  C:\Users\Terrance\AppData\Local\Temp\ccHh2A52.s 			page 17


 490              	.L24:
 491 0044 00010540 		.word	1074069760
 492 0048 FFFFFBFF 		.word	-262145
 493              		.cfi_endproc
 494              	.LFE7:
 495              		.size	PWM_SetOneShot, .-PWM_SetOneShot
 496              		.section	.text.PWM_SetPWMMode,"ax",%progbits
 497              		.align	2
 498              		.global	PWM_SetPWMMode
 499              		.code	16
 500              		.thumb_func
 501              		.type	PWM_SetPWMMode, %function
 502              	PWM_SetPWMMode:
 503              	.LFB8:
 424:.\Generated_Source\PSoC4/PWM.c **** 
 425:.\Generated_Source\PSoC4/PWM.c **** 
 426:.\Generated_Source\PSoC4/PWM.c **** /*******************************************************************************
 427:.\Generated_Source\PSoC4/PWM.c **** * Function Name: PWM_SetPWMMode
 428:.\Generated_Source\PSoC4/PWM.c **** ********************************************************************************
 429:.\Generated_Source\PSoC4/PWM.c **** *
 430:.\Generated_Source\PSoC4/PWM.c **** * Summary:
 431:.\Generated_Source\PSoC4/PWM.c **** *  Writes the control register that determines what mode of operation the PWM
 432:.\Generated_Source\PSoC4/PWM.c **** *  output lines are driven in.  There is a setting for what to do on a
 433:.\Generated_Source\PSoC4/PWM.c **** *  comparison match (CC_MATCH), on an overflow (OVERFLOW) and on an underflow
 434:.\Generated_Source\PSoC4/PWM.c **** *  (UNDERFLOW).  The value for each of the three must be ORed together to form
 435:.\Generated_Source\PSoC4/PWM.c **** *  the mode.
 436:.\Generated_Source\PSoC4/PWM.c **** *
 437:.\Generated_Source\PSoC4/PWM.c **** * Parameters:
 438:.\Generated_Source\PSoC4/PWM.c **** *  modeMask: A combination of three mode settings.  Mask must include a value
 439:.\Generated_Source\PSoC4/PWM.c **** *  for each of the three or use one of the preconfigured PWM settings.
 440:.\Generated_Source\PSoC4/PWM.c **** *   Values:
 441:.\Generated_Source\PSoC4/PWM.c **** *     - CC_MATCH_SET        - Set on comparison match
 442:.\Generated_Source\PSoC4/PWM.c **** *     - CC_MATCH_CLEAR      - Clear on comparison match
 443:.\Generated_Source\PSoC4/PWM.c **** *     - CC_MATCH_INVERT     - Invert on comparison match
 444:.\Generated_Source\PSoC4/PWM.c **** *     - CC_MATCH_NO_CHANGE  - No change on comparison match
 445:.\Generated_Source\PSoC4/PWM.c **** *     - OVERLOW_SET         - Set on overflow
 446:.\Generated_Source\PSoC4/PWM.c **** *     - OVERLOW_CLEAR       - Clear on  overflow
 447:.\Generated_Source\PSoC4/PWM.c **** *     - OVERLOW_INVERT      - Invert on overflow
 448:.\Generated_Source\PSoC4/PWM.c **** *     - OVERLOW_NO_CHANGE   - No change on overflow
 449:.\Generated_Source\PSoC4/PWM.c **** *     - UNDERFLOW_SET       - Set on underflow
 450:.\Generated_Source\PSoC4/PWM.c **** *     - UNDERFLOW_CLEAR     - Clear on underflow
 451:.\Generated_Source\PSoC4/PWM.c **** *     - UNDERFLOW_INVERT    - Invert on underflow
 452:.\Generated_Source\PSoC4/PWM.c **** *     - UNDERFLOW_NO_CHANGE - No change on underflow
 453:.\Generated_Source\PSoC4/PWM.c **** *     - PWM_MODE_LEFT       - Setting for left aligned PWM.  Should be combined
 454:.\Generated_Source\PSoC4/PWM.c **** *                             with up counting mode
 455:.\Generated_Source\PSoC4/PWM.c **** *     - PWM_MODE_RIGHT      - Setting for right aligned PWM.  Should be combined
 456:.\Generated_Source\PSoC4/PWM.c **** *                             with down counting mode
 457:.\Generated_Source\PSoC4/PWM.c **** *     - PWM_MODE_CENTER     - Setting for center aligned PWM.  Should be
 458:.\Generated_Source\PSoC4/PWM.c **** *                             combined with up/down 0 mode
 459:.\Generated_Source\PSoC4/PWM.c **** *     - PWM_MODE_ASYM       - Setting for asymmetric PWM.  Should be combined
 460:.\Generated_Source\PSoC4/PWM.c **** *                             with up/down 1 mode
 461:.\Generated_Source\PSoC4/PWM.c **** *
 462:.\Generated_Source\PSoC4/PWM.c **** * Return:
 463:.\Generated_Source\PSoC4/PWM.c **** *  None
 464:.\Generated_Source\PSoC4/PWM.c **** *
 465:.\Generated_Source\PSoC4/PWM.c **** *******************************************************************************/
 466:.\Generated_Source\PSoC4/PWM.c **** void PWM_SetPWMMode(uint32 modeMask)
ARM GAS  C:\Users\Terrance\AppData\Local\Temp\ccHh2A52.s 			page 18


 467:.\Generated_Source\PSoC4/PWM.c **** {
 504              		.loc 1 467 0
 505              		.cfi_startproc
 506 0000 80B5     		push	{r7, lr}
 507              	.LCFI22:
 508              		.cfi_def_cfa_offset 8
 509              		.cfi_offset 7, -8
 510              		.cfi_offset 14, -4
 511 0002 82B0     		sub	sp, sp, #8
 512              	.LCFI23:
 513              		.cfi_def_cfa_offset 16
 514 0004 00AF     		add	r7, sp, #0
 515              	.LCFI24:
 516              		.cfi_def_cfa_register 7
 517 0006 7860     		str	r0, [r7, #4]
 468:.\Generated_Source\PSoC4/PWM.c ****     PWM_TRIG_CONTROL2_REG = (modeMask & PWM_6BIT_MASK);
 518              		.loc 1 468 0
 519 0008 034B     		ldr	r3, .L27
 520 000a 7968     		ldr	r1, [r7, #4]
 521 000c 3F22     		mov	r2, #63
 522 000e 0A40     		and	r2, r1
 523 0010 1A60     		str	r2, [r3]
 469:.\Generated_Source\PSoC4/PWM.c **** }
 524              		.loc 1 469 0
 525 0012 BD46     		mov	sp, r7
 526 0014 02B0     		add	sp, sp, #8
 527              		@ sp needed for prologue
 528 0016 80BD     		pop	{r7, pc}
 529              	.L28:
 530              		.align	2
 531              	.L27:
 532 0018 28010540 		.word	1074069800
 533              		.cfi_endproc
 534              	.LFE8:
 535              		.size	PWM_SetPWMMode, .-PWM_SetPWMMode
 536              		.section	.text.PWM_SetPWMSyncKill,"ax",%progbits
 537              		.align	2
 538              		.global	PWM_SetPWMSyncKill
 539              		.code	16
 540              		.thumb_func
 541              		.type	PWM_SetPWMSyncKill, %function
 542              	PWM_SetPWMSyncKill:
 543              	.LFB9:
 470:.\Generated_Source\PSoC4/PWM.c **** 
 471:.\Generated_Source\PSoC4/PWM.c **** 
 472:.\Generated_Source\PSoC4/PWM.c **** 
 473:.\Generated_Source\PSoC4/PWM.c **** /*******************************************************************************
 474:.\Generated_Source\PSoC4/PWM.c **** * Function Name: PWM_SetPWMSyncKill
 475:.\Generated_Source\PSoC4/PWM.c **** ********************************************************************************
 476:.\Generated_Source\PSoC4/PWM.c **** *
 477:.\Generated_Source\PSoC4/PWM.c **** * Summary:
 478:.\Generated_Source\PSoC4/PWM.c **** *  Writes the register that controls whether the PWM kill signal (stop input)
 479:.\Generated_Source\PSoC4/PWM.c **** *  causes asynchronous or synchronous kill operation.  By default the kill
 480:.\Generated_Source\PSoC4/PWM.c **** *  operation is asynchronous.  This functionality is only applicable to the PWM
 481:.\Generated_Source\PSoC4/PWM.c **** *  and PWM with dead time modes.
 482:.\Generated_Source\PSoC4/PWM.c **** *
 483:.\Generated_Source\PSoC4/PWM.c **** *  For Synchronous mode the kill signal disables both the line and line_n
ARM GAS  C:\Users\Terrance\AppData\Local\Temp\ccHh2A52.s 			page 19


 484:.\Generated_Source\PSoC4/PWM.c **** *  signals until the next terminal count.
 485:.\Generated_Source\PSoC4/PWM.c **** *
 486:.\Generated_Source\PSoC4/PWM.c **** *  For Asynchronous mode the kill signal disables both the line and line_n
 487:.\Generated_Source\PSoC4/PWM.c **** *  signals when the kill signal is present.  This mode should only be used
 488:.\Generated_Source\PSoC4/PWM.c **** *  when the kill signal (stop input) is configured in the pass through mode
 489:.\Generated_Source\PSoC4/PWM.c **** *  (Level sensitive signal).
 490:.\Generated_Source\PSoC4/PWM.c **** 
 491:.\Generated_Source\PSoC4/PWM.c **** *
 492:.\Generated_Source\PSoC4/PWM.c **** * Parameters:
 493:.\Generated_Source\PSoC4/PWM.c **** *  syncKillEnable
 494:.\Generated_Source\PSoC4/PWM.c **** *   Values:
 495:.\Generated_Source\PSoC4/PWM.c **** *     - 0 - Asynchronous
 496:.\Generated_Source\PSoC4/PWM.c **** *     - 1 - Synchronous
 497:.\Generated_Source\PSoC4/PWM.c **** *
 498:.\Generated_Source\PSoC4/PWM.c **** * Return:
 499:.\Generated_Source\PSoC4/PWM.c **** *  None
 500:.\Generated_Source\PSoC4/PWM.c **** *
 501:.\Generated_Source\PSoC4/PWM.c **** *******************************************************************************/
 502:.\Generated_Source\PSoC4/PWM.c **** void PWM_SetPWMSyncKill(uint32 syncKillEnable)
 503:.\Generated_Source\PSoC4/PWM.c **** {
 544              		.loc 1 503 0
 545              		.cfi_startproc
 546 0000 90B5     		push	{r4, r7, lr}
 547              	.LCFI25:
 548              		.cfi_def_cfa_offset 12
 549              		.cfi_offset 4, -12
 550              		.cfi_offset 7, -8
 551              		.cfi_offset 14, -4
 552 0002 85B0     		sub	sp, sp, #20
 553              	.LCFI26:
 554              		.cfi_def_cfa_offset 32
 555 0004 00AF     		add	r7, sp, #0
 556              	.LCFI27:
 557              		.cfi_def_cfa_register 7
 558 0006 7860     		str	r0, [r7, #4]
 504:.\Generated_Source\PSoC4/PWM.c ****     uint8 enableInterrupts;
 505:.\Generated_Source\PSoC4/PWM.c **** 
 506:.\Generated_Source\PSoC4/PWM.c ****     enableInterrupts = CyEnterCriticalSection();
 559              		.loc 1 506 0
 560 0008 3C1C     		mov	r4, r7
 561 000a 0F34     		add	r4, r4, #15
 562 000c FFF7FEFF 		bl	CyEnterCriticalSection
 563 0010 031C     		mov	r3, r0
 564 0012 2370     		strb	r3, [r4]
 507:.\Generated_Source\PSoC4/PWM.c **** 
 508:.\Generated_Source\PSoC4/PWM.c ****     PWM_CONTROL_REG &= (uint32)~PWM_PWM_SYNC_KILL_MASK;
 565              		.loc 1 508 0
 566 0014 0B4B     		ldr	r3, .L30
 567 0016 0B4A     		ldr	r2, .L30
 568 0018 1268     		ldr	r2, [r2]
 569 001a 0421     		mov	r1, #4
 570 001c 8A43     		bic	r2, r1
 571 001e 1A60     		str	r2, [r3]
 509:.\Generated_Source\PSoC4/PWM.c ****     PWM_CONTROL_REG |= ((uint32)((syncKillEnable & PWM_1BIT_MASK)  <<
 572              		.loc 1 509 0
 573 0020 084B     		ldr	r3, .L30
 574 0022 084A     		ldr	r2, .L30
ARM GAS  C:\Users\Terrance\AppData\Local\Temp\ccHh2A52.s 			page 20


 575 0024 1168     		ldr	r1, [r2]
 576 0026 7868     		ldr	r0, [r7, #4]
 577 0028 0122     		mov	r2, #1
 578 002a 0240     		and	r2, r0
 579 002c 9200     		lsl	r2, r2, #2
 580 002e 0A43     		orr	r2, r1
 581 0030 1A60     		str	r2, [r3]
 510:.\Generated_Source\PSoC4/PWM.c ****                                                PWM_PWM_SYNC_KILL_SHIFT));
 511:.\Generated_Source\PSoC4/PWM.c **** 
 512:.\Generated_Source\PSoC4/PWM.c ****     CyExitCriticalSection(enableInterrupts);
 582              		.loc 1 512 0
 583 0032 3B1C     		mov	r3, r7
 584 0034 0F33     		add	r3, r3, #15
 585 0036 1B78     		ldrb	r3, [r3]
 586 0038 181C     		mov	r0, r3
 587 003a FFF7FEFF 		bl	CyExitCriticalSection
 513:.\Generated_Source\PSoC4/PWM.c **** }
 588              		.loc 1 513 0
 589 003e BD46     		mov	sp, r7
 590 0040 05B0     		add	sp, sp, #20
 591              		@ sp needed for prologue
 592 0042 90BD     		pop	{r4, r7, pc}
 593              	.L31:
 594              		.align	2
 595              	.L30:
 596 0044 00010540 		.word	1074069760
 597              		.cfi_endproc
 598              	.LFE9:
 599              		.size	PWM_SetPWMSyncKill, .-PWM_SetPWMSyncKill
 600              		.section	.text.PWM_SetPWMStopOnKill,"ax",%progbits
 601              		.align	2
 602              		.global	PWM_SetPWMStopOnKill
 603              		.code	16
 604              		.thumb_func
 605              		.type	PWM_SetPWMStopOnKill, %function
 606              	PWM_SetPWMStopOnKill:
 607              	.LFB10:
 514:.\Generated_Source\PSoC4/PWM.c **** 
 515:.\Generated_Source\PSoC4/PWM.c **** 
 516:.\Generated_Source\PSoC4/PWM.c **** /*******************************************************************************
 517:.\Generated_Source\PSoC4/PWM.c **** * Function Name: PWM_SetPWMStopOnKill
 518:.\Generated_Source\PSoC4/PWM.c **** ********************************************************************************
 519:.\Generated_Source\PSoC4/PWM.c **** *
 520:.\Generated_Source\PSoC4/PWM.c **** * Summary:
 521:.\Generated_Source\PSoC4/PWM.c **** *  Writes the register that controls whether the PWM kill signal (stop input)
 522:.\Generated_Source\PSoC4/PWM.c **** *  causes the PWM counter to stop.  By default the kill operation does not stop
 523:.\Generated_Source\PSoC4/PWM.c **** *  the counter.  This functionality is only applicable to the three PWM modes.
 524:.\Generated_Source\PSoC4/PWM.c **** *
 525:.\Generated_Source\PSoC4/PWM.c **** *
 526:.\Generated_Source\PSoC4/PWM.c **** * Parameters:
 527:.\Generated_Source\PSoC4/PWM.c **** *  stopOnKillEnable
 528:.\Generated_Source\PSoC4/PWM.c **** *   Values:
 529:.\Generated_Source\PSoC4/PWM.c **** *     - 0 - Don't stop
 530:.\Generated_Source\PSoC4/PWM.c **** *     - 1 - Stop
 531:.\Generated_Source\PSoC4/PWM.c **** *
 532:.\Generated_Source\PSoC4/PWM.c **** * Return:
 533:.\Generated_Source\PSoC4/PWM.c **** *  None
ARM GAS  C:\Users\Terrance\AppData\Local\Temp\ccHh2A52.s 			page 21


 534:.\Generated_Source\PSoC4/PWM.c **** *
 535:.\Generated_Source\PSoC4/PWM.c **** *******************************************************************************/
 536:.\Generated_Source\PSoC4/PWM.c **** void PWM_SetPWMStopOnKill(uint32 stopOnKillEnable)
 537:.\Generated_Source\PSoC4/PWM.c **** {
 608              		.loc 1 537 0
 609              		.cfi_startproc
 610 0000 90B5     		push	{r4, r7, lr}
 611              	.LCFI28:
 612              		.cfi_def_cfa_offset 12
 613              		.cfi_offset 4, -12
 614              		.cfi_offset 7, -8
 615              		.cfi_offset 14, -4
 616 0002 85B0     		sub	sp, sp, #20
 617              	.LCFI29:
 618              		.cfi_def_cfa_offset 32
 619 0004 00AF     		add	r7, sp, #0
 620              	.LCFI30:
 621              		.cfi_def_cfa_register 7
 622 0006 7860     		str	r0, [r7, #4]
 538:.\Generated_Source\PSoC4/PWM.c ****     uint8 enableInterrupts;
 539:.\Generated_Source\PSoC4/PWM.c **** 
 540:.\Generated_Source\PSoC4/PWM.c ****     enableInterrupts = CyEnterCriticalSection();
 623              		.loc 1 540 0
 624 0008 3C1C     		mov	r4, r7
 625 000a 0F34     		add	r4, r4, #15
 626 000c FFF7FEFF 		bl	CyEnterCriticalSection
 627 0010 031C     		mov	r3, r0
 628 0012 2370     		strb	r3, [r4]
 541:.\Generated_Source\PSoC4/PWM.c **** 
 542:.\Generated_Source\PSoC4/PWM.c ****     PWM_CONTROL_REG &= (uint32)~PWM_PWM_STOP_KILL_MASK;
 629              		.loc 1 542 0
 630 0014 0B4B     		ldr	r3, .L33
 631 0016 0B4A     		ldr	r2, .L33
 632 0018 1268     		ldr	r2, [r2]
 633 001a 0821     		mov	r1, #8
 634 001c 8A43     		bic	r2, r1
 635 001e 1A60     		str	r2, [r3]
 543:.\Generated_Source\PSoC4/PWM.c ****     PWM_CONTROL_REG |= ((uint32)((stopOnKillEnable & PWM_1BIT_MASK)  <<
 636              		.loc 1 543 0
 637 0020 084B     		ldr	r3, .L33
 638 0022 084A     		ldr	r2, .L33
 639 0024 1168     		ldr	r1, [r2]
 640 0026 7868     		ldr	r0, [r7, #4]
 641 0028 0122     		mov	r2, #1
 642 002a 0240     		and	r2, r0
 643 002c D200     		lsl	r2, r2, #3
 644 002e 0A43     		orr	r2, r1
 645 0030 1A60     		str	r2, [r3]
 544:.\Generated_Source\PSoC4/PWM.c ****                                                          PWM_PWM_STOP_KILL_SHIFT));
 545:.\Generated_Source\PSoC4/PWM.c **** 
 546:.\Generated_Source\PSoC4/PWM.c ****     CyExitCriticalSection(enableInterrupts);
 646              		.loc 1 546 0
 647 0032 3B1C     		mov	r3, r7
 648 0034 0F33     		add	r3, r3, #15
 649 0036 1B78     		ldrb	r3, [r3]
 650 0038 181C     		mov	r0, r3
 651 003a FFF7FEFF 		bl	CyExitCriticalSection
ARM GAS  C:\Users\Terrance\AppData\Local\Temp\ccHh2A52.s 			page 22


 547:.\Generated_Source\PSoC4/PWM.c **** }
 652              		.loc 1 547 0
 653 003e BD46     		mov	sp, r7
 654 0040 05B0     		add	sp, sp, #20
 655              		@ sp needed for prologue
 656 0042 90BD     		pop	{r4, r7, pc}
 657              	.L34:
 658              		.align	2
 659              	.L33:
 660 0044 00010540 		.word	1074069760
 661              		.cfi_endproc
 662              	.LFE10:
 663              		.size	PWM_SetPWMStopOnKill, .-PWM_SetPWMStopOnKill
 664              		.section	.text.PWM_SetPWMDeadTime,"ax",%progbits
 665              		.align	2
 666              		.global	PWM_SetPWMDeadTime
 667              		.code	16
 668              		.thumb_func
 669              		.type	PWM_SetPWMDeadTime, %function
 670              	PWM_SetPWMDeadTime:
 671              	.LFB11:
 548:.\Generated_Source\PSoC4/PWM.c **** 
 549:.\Generated_Source\PSoC4/PWM.c **** 
 550:.\Generated_Source\PSoC4/PWM.c **** /*******************************************************************************
 551:.\Generated_Source\PSoC4/PWM.c **** * Function Name: PWM_SetPWMDeadTime
 552:.\Generated_Source\PSoC4/PWM.c **** ********************************************************************************
 553:.\Generated_Source\PSoC4/PWM.c **** *
 554:.\Generated_Source\PSoC4/PWM.c **** * Summary:
 555:.\Generated_Source\PSoC4/PWM.c **** *  Writes the dead time control value.  This value delays the rising edge of
 556:.\Generated_Source\PSoC4/PWM.c **** *  both the line and line_n signals the designated number of cycles resulting
 557:.\Generated_Source\PSoC4/PWM.c **** *  in both signals being inactive for that many cycles.  This functionality is
 558:.\Generated_Source\PSoC4/PWM.c **** *  only applicable to the PWM in the dead time mode.
 559:.\Generated_Source\PSoC4/PWM.c **** 
 560:.\Generated_Source\PSoC4/PWM.c **** *
 561:.\Generated_Source\PSoC4/PWM.c **** * Parameters:
 562:.\Generated_Source\PSoC4/PWM.c **** *  Dead time to insert
 563:.\Generated_Source\PSoC4/PWM.c **** *   Values: 0 to 255
 564:.\Generated_Source\PSoC4/PWM.c **** *
 565:.\Generated_Source\PSoC4/PWM.c **** * Return:
 566:.\Generated_Source\PSoC4/PWM.c **** *  None
 567:.\Generated_Source\PSoC4/PWM.c **** *
 568:.\Generated_Source\PSoC4/PWM.c **** *******************************************************************************/
 569:.\Generated_Source\PSoC4/PWM.c **** void PWM_SetPWMDeadTime(uint32 deadTime)
 570:.\Generated_Source\PSoC4/PWM.c **** {
 672              		.loc 1 570 0
 673              		.cfi_startproc
 674 0000 90B5     		push	{r4, r7, lr}
 675              	.LCFI31:
 676              		.cfi_def_cfa_offset 12
 677              		.cfi_offset 4, -12
 678              		.cfi_offset 7, -8
 679              		.cfi_offset 14, -4
 680 0002 85B0     		sub	sp, sp, #20
 681              	.LCFI32:
 682              		.cfi_def_cfa_offset 32
 683 0004 00AF     		add	r7, sp, #0
 684              	.LCFI33:
ARM GAS  C:\Users\Terrance\AppData\Local\Temp\ccHh2A52.s 			page 23


 685              		.cfi_def_cfa_register 7
 686 0006 7860     		str	r0, [r7, #4]
 571:.\Generated_Source\PSoC4/PWM.c ****     uint8 enableInterrupts;
 572:.\Generated_Source\PSoC4/PWM.c **** 
 573:.\Generated_Source\PSoC4/PWM.c ****     enableInterrupts = CyEnterCriticalSection();
 687              		.loc 1 573 0
 688 0008 3C1C     		mov	r4, r7
 689 000a 0F34     		add	r4, r4, #15
 690 000c FFF7FEFF 		bl	CyEnterCriticalSection
 691 0010 031C     		mov	r3, r0
 692 0012 2370     		strb	r3, [r4]
 574:.\Generated_Source\PSoC4/PWM.c **** 
 575:.\Generated_Source\PSoC4/PWM.c ****     PWM_CONTROL_REG &= (uint32)~PWM_PRESCALER_MASK;
 693              		.loc 1 575 0
 694 0014 0B4B     		ldr	r3, .L36
 695 0016 0B4A     		ldr	r2, .L36
 696 0018 1168     		ldr	r1, [r2]
 697 001a 0B4A     		ldr	r2, .L36+4
 698 001c 0A40     		and	r2, r1
 699 001e 1A60     		str	r2, [r3]
 576:.\Generated_Source\PSoC4/PWM.c ****     PWM_CONTROL_REG |= ((uint32)((deadTime & PWM_8BIT_MASK) <<
 700              		.loc 1 576 0
 701 0020 084B     		ldr	r3, .L36
 702 0022 084A     		ldr	r2, .L36
 703 0024 1168     		ldr	r1, [r2]
 704 0026 7A68     		ldr	r2, [r7, #4]
 705 0028 1202     		lsl	r2, r2, #8
 706 002a 1204     		lsl	r2, r2, #16
 707 002c 120C     		lsr	r2, r2, #16
 708 002e 0A43     		orr	r2, r1
 709 0030 1A60     		str	r2, [r3]
 577:.\Generated_Source\PSoC4/PWM.c ****                                                           PWM_PRESCALER_SHIFT));
 578:.\Generated_Source\PSoC4/PWM.c **** 
 579:.\Generated_Source\PSoC4/PWM.c ****     CyExitCriticalSection(enableInterrupts);
 710              		.loc 1 579 0
 711 0032 3B1C     		mov	r3, r7
 712 0034 0F33     		add	r3, r3, #15
 713 0036 1B78     		ldrb	r3, [r3]
 714 0038 181C     		mov	r0, r3
 715 003a FFF7FEFF 		bl	CyExitCriticalSection
 580:.\Generated_Source\PSoC4/PWM.c **** }
 716              		.loc 1 580 0
 717 003e BD46     		mov	sp, r7
 718 0040 05B0     		add	sp, sp, #20
 719              		@ sp needed for prologue
 720 0042 90BD     		pop	{r4, r7, pc}
 721              	.L37:
 722              		.align	2
 723              	.L36:
 724 0044 00010540 		.word	1074069760
 725 0048 FF00FFFF 		.word	-65281
 726              		.cfi_endproc
 727              	.LFE11:
 728              		.size	PWM_SetPWMDeadTime, .-PWM_SetPWMDeadTime
 729              		.section	.text.PWM_SetPWMInvert,"ax",%progbits
 730              		.align	2
 731              		.global	PWM_SetPWMInvert
ARM GAS  C:\Users\Terrance\AppData\Local\Temp\ccHh2A52.s 			page 24


 732              		.code	16
 733              		.thumb_func
 734              		.type	PWM_SetPWMInvert, %function
 735              	PWM_SetPWMInvert:
 736              	.LFB12:
 581:.\Generated_Source\PSoC4/PWM.c **** 
 582:.\Generated_Source\PSoC4/PWM.c **** 
 583:.\Generated_Source\PSoC4/PWM.c **** /*******************************************************************************
 584:.\Generated_Source\PSoC4/PWM.c **** * Function Name: PWM_SetPWMInvert
 585:.\Generated_Source\PSoC4/PWM.c **** ********************************************************************************
 586:.\Generated_Source\PSoC4/PWM.c **** *
 587:.\Generated_Source\PSoC4/PWM.c **** * Summary:
 588:.\Generated_Source\PSoC4/PWM.c **** *  Writes the bits that control whether the line and line_n outputs are
 589:.\Generated_Source\PSoC4/PWM.c **** *  inverted from their normal output values.  This functionality is only
 590:.\Generated_Source\PSoC4/PWM.c **** *  applicable to the three PWM modes.
 591:.\Generated_Source\PSoC4/PWM.c **** *
 592:.\Generated_Source\PSoC4/PWM.c **** * Parameters:
 593:.\Generated_Source\PSoC4/PWM.c **** *  mask: Mask of outputs to invert.
 594:.\Generated_Source\PSoC4/PWM.c **** *   Values:
 595:.\Generated_Source\PSoC4/PWM.c **** *         - PWM_INVERT_LINE   - Inverts the line output
 596:.\Generated_Source\PSoC4/PWM.c **** *         - PWM_INVERT_LINE_N - Inverts the line_n output
 597:.\Generated_Source\PSoC4/PWM.c **** *
 598:.\Generated_Source\PSoC4/PWM.c **** * Return:
 599:.\Generated_Source\PSoC4/PWM.c **** *  None
 600:.\Generated_Source\PSoC4/PWM.c **** *
 601:.\Generated_Source\PSoC4/PWM.c **** *******************************************************************************/
 602:.\Generated_Source\PSoC4/PWM.c **** void PWM_SetPWMInvert(uint32 mask)
 603:.\Generated_Source\PSoC4/PWM.c **** {
 737              		.loc 1 603 0
 738              		.cfi_startproc
 739 0000 90B5     		push	{r4, r7, lr}
 740              	.LCFI34:
 741              		.cfi_def_cfa_offset 12
 742              		.cfi_offset 4, -12
 743              		.cfi_offset 7, -8
 744              		.cfi_offset 14, -4
 745 0002 85B0     		sub	sp, sp, #20
 746              	.LCFI35:
 747              		.cfi_def_cfa_offset 32
 748 0004 00AF     		add	r7, sp, #0
 749              	.LCFI36:
 750              		.cfi_def_cfa_register 7
 751 0006 7860     		str	r0, [r7, #4]
 604:.\Generated_Source\PSoC4/PWM.c ****     uint8 enableInterrupts;
 605:.\Generated_Source\PSoC4/PWM.c **** 
 606:.\Generated_Source\PSoC4/PWM.c ****     enableInterrupts = CyEnterCriticalSection();
 752              		.loc 1 606 0
 753 0008 3C1C     		mov	r4, r7
 754 000a 0F34     		add	r4, r4, #15
 755 000c FFF7FEFF 		bl	CyEnterCriticalSection
 756 0010 031C     		mov	r3, r0
 757 0012 2370     		strb	r3, [r4]
 607:.\Generated_Source\PSoC4/PWM.c **** 
 608:.\Generated_Source\PSoC4/PWM.c ****     PWM_CONTROL_REG &= (uint32)~PWM_INV_OUT_MASK;
 758              		.loc 1 608 0
 759 0014 0A4B     		ldr	r3, .L39
 760 0016 0A4A     		ldr	r2, .L39
ARM GAS  C:\Users\Terrance\AppData\Local\Temp\ccHh2A52.s 			page 25


 761 0018 1168     		ldr	r1, [r2]
 762 001a 0A4A     		ldr	r2, .L39+4
 763 001c 0A40     		and	r2, r1
 764 001e 1A60     		str	r2, [r3]
 609:.\Generated_Source\PSoC4/PWM.c ****     PWM_CONTROL_REG |= mask;
 765              		.loc 1 609 0
 766 0020 074B     		ldr	r3, .L39
 767 0022 074A     		ldr	r2, .L39
 768 0024 1168     		ldr	r1, [r2]
 769 0026 7A68     		ldr	r2, [r7, #4]
 770 0028 0A43     		orr	r2, r1
 771 002a 1A60     		str	r2, [r3]
 610:.\Generated_Source\PSoC4/PWM.c **** 
 611:.\Generated_Source\PSoC4/PWM.c ****     CyExitCriticalSection(enableInterrupts);
 772              		.loc 1 611 0
 773 002c 3B1C     		mov	r3, r7
 774 002e 0F33     		add	r3, r3, #15
 775 0030 1B78     		ldrb	r3, [r3]
 776 0032 181C     		mov	r0, r3
 777 0034 FFF7FEFF 		bl	CyExitCriticalSection
 612:.\Generated_Source\PSoC4/PWM.c **** }
 778              		.loc 1 612 0
 779 0038 BD46     		mov	sp, r7
 780 003a 05B0     		add	sp, sp, #20
 781              		@ sp needed for prologue
 782 003c 90BD     		pop	{r4, r7, pc}
 783              	.L40:
 784 003e C046     		.align	2
 785              	.L39:
 786 0040 00010540 		.word	1074069760
 787 0044 FFFFCFFF 		.word	-3145729
 788              		.cfi_endproc
 789              	.LFE12:
 790              		.size	PWM_SetPWMInvert, .-PWM_SetPWMInvert
 791              		.section	.text.PWM_WriteCounter,"ax",%progbits
 792              		.align	2
 793              		.global	PWM_WriteCounter
 794              		.code	16
 795              		.thumb_func
 796              		.type	PWM_WriteCounter, %function
 797              	PWM_WriteCounter:
 798              	.LFB13:
 613:.\Generated_Source\PSoC4/PWM.c **** 
 614:.\Generated_Source\PSoC4/PWM.c **** 
 615:.\Generated_Source\PSoC4/PWM.c **** 
 616:.\Generated_Source\PSoC4/PWM.c **** /*******************************************************************************
 617:.\Generated_Source\PSoC4/PWM.c **** * Function Name: PWM_WriteCounter
 618:.\Generated_Source\PSoC4/PWM.c **** ********************************************************************************
 619:.\Generated_Source\PSoC4/PWM.c **** *
 620:.\Generated_Source\PSoC4/PWM.c **** * Summary:
 621:.\Generated_Source\PSoC4/PWM.c **** *  Writes a new 16bit counter value directly into the counter register, thus
 622:.\Generated_Source\PSoC4/PWM.c **** *  setting the counter (not the period) to the value written. It is not
 623:.\Generated_Source\PSoC4/PWM.c **** *  advised to write to this field when the counter is running.
 624:.\Generated_Source\PSoC4/PWM.c **** *
 625:.\Generated_Source\PSoC4/PWM.c **** * Parameters:
 626:.\Generated_Source\PSoC4/PWM.c **** *  count: value to write
 627:.\Generated_Source\PSoC4/PWM.c **** *
ARM GAS  C:\Users\Terrance\AppData\Local\Temp\ccHh2A52.s 			page 26


 628:.\Generated_Source\PSoC4/PWM.c **** * Return:
 629:.\Generated_Source\PSoC4/PWM.c **** *  None
 630:.\Generated_Source\PSoC4/PWM.c **** *
 631:.\Generated_Source\PSoC4/PWM.c **** *******************************************************************************/
 632:.\Generated_Source\PSoC4/PWM.c **** void PWM_WriteCounter(uint32 count)
 633:.\Generated_Source\PSoC4/PWM.c **** {
 799              		.loc 1 633 0
 800              		.cfi_startproc
 801 0000 80B5     		push	{r7, lr}
 802              	.LCFI37:
 803              		.cfi_def_cfa_offset 8
 804              		.cfi_offset 7, -8
 805              		.cfi_offset 14, -4
 806 0002 82B0     		sub	sp, sp, #8
 807              	.LCFI38:
 808              		.cfi_def_cfa_offset 16
 809 0004 00AF     		add	r7, sp, #0
 810              	.LCFI39:
 811              		.cfi_def_cfa_register 7
 812 0006 7860     		str	r0, [r7, #4]
 634:.\Generated_Source\PSoC4/PWM.c ****     PWM_COUNTER_REG = (count & PWM_16BIT_MASK);
 813              		.loc 1 634 0
 814 0008 034B     		ldr	r3, .L42
 815 000a 7A68     		ldr	r2, [r7, #4]
 816 000c 1204     		lsl	r2, r2, #16
 817 000e 120C     		lsr	r2, r2, #16
 818 0010 1A60     		str	r2, [r3]
 635:.\Generated_Source\PSoC4/PWM.c **** }
 819              		.loc 1 635 0
 820 0012 BD46     		mov	sp, r7
 821 0014 02B0     		add	sp, sp, #8
 822              		@ sp needed for prologue
 823 0016 80BD     		pop	{r7, pc}
 824              	.L43:
 825              		.align	2
 826              	.L42:
 827 0018 08010540 		.word	1074069768
 828              		.cfi_endproc
 829              	.LFE13:
 830              		.size	PWM_WriteCounter, .-PWM_WriteCounter
 831              		.section	.text.PWM_ReadCounter,"ax",%progbits
 832              		.align	2
 833              		.global	PWM_ReadCounter
 834              		.code	16
 835              		.thumb_func
 836              		.type	PWM_ReadCounter, %function
 837              	PWM_ReadCounter:
 838              	.LFB14:
 636:.\Generated_Source\PSoC4/PWM.c **** 
 637:.\Generated_Source\PSoC4/PWM.c **** 
 638:.\Generated_Source\PSoC4/PWM.c **** /*******************************************************************************
 639:.\Generated_Source\PSoC4/PWM.c **** * Function Name: PWM_ReadCounter
 640:.\Generated_Source\PSoC4/PWM.c **** ********************************************************************************
 641:.\Generated_Source\PSoC4/PWM.c **** *
 642:.\Generated_Source\PSoC4/PWM.c **** * Summary:
 643:.\Generated_Source\PSoC4/PWM.c **** *  Reads the current counter value.
 644:.\Generated_Source\PSoC4/PWM.c **** *
ARM GAS  C:\Users\Terrance\AppData\Local\Temp\ccHh2A52.s 			page 27


 645:.\Generated_Source\PSoC4/PWM.c **** * Parameters:
 646:.\Generated_Source\PSoC4/PWM.c **** *  None
 647:.\Generated_Source\PSoC4/PWM.c **** *
 648:.\Generated_Source\PSoC4/PWM.c **** * Return:
 649:.\Generated_Source\PSoC4/PWM.c **** *  Current counter value
 650:.\Generated_Source\PSoC4/PWM.c **** *
 651:.\Generated_Source\PSoC4/PWM.c **** *******************************************************************************/
 652:.\Generated_Source\PSoC4/PWM.c **** uint32 PWM_ReadCounter(void)
 653:.\Generated_Source\PSoC4/PWM.c **** {
 839              		.loc 1 653 0
 840              		.cfi_startproc
 841 0000 80B5     		push	{r7, lr}
 842              	.LCFI40:
 843              		.cfi_def_cfa_offset 8
 844              		.cfi_offset 7, -8
 845              		.cfi_offset 14, -4
 846 0002 00AF     		add	r7, sp, #0
 847              	.LCFI41:
 848              		.cfi_def_cfa_register 7
 654:.\Generated_Source\PSoC4/PWM.c ****     return (PWM_COUNTER_REG & PWM_16BIT_MASK);
 849              		.loc 1 654 0
 850 0004 034B     		ldr	r3, .L46
 851 0006 1B68     		ldr	r3, [r3]
 852 0008 1B04     		lsl	r3, r3, #16
 853 000a 1B0C     		lsr	r3, r3, #16
 655:.\Generated_Source\PSoC4/PWM.c **** }
 854              		.loc 1 655 0
 855 000c 181C     		mov	r0, r3
 856 000e BD46     		mov	sp, r7
 857              		@ sp needed for prologue
 858 0010 80BD     		pop	{r7, pc}
 859              	.L47:
 860 0012 C046     		.align	2
 861              	.L46:
 862 0014 08010540 		.word	1074069768
 863              		.cfi_endproc
 864              	.LFE14:
 865              		.size	PWM_ReadCounter, .-PWM_ReadCounter
 866              		.section	.text.PWM_SetCounterMode,"ax",%progbits
 867              		.align	2
 868              		.global	PWM_SetCounterMode
 869              		.code	16
 870              		.thumb_func
 871              		.type	PWM_SetCounterMode, %function
 872              	PWM_SetCounterMode:
 873              	.LFB15:
 656:.\Generated_Source\PSoC4/PWM.c **** 
 657:.\Generated_Source\PSoC4/PWM.c **** 
 658:.\Generated_Source\PSoC4/PWM.c **** /*******************************************************************************
 659:.\Generated_Source\PSoC4/PWM.c **** * Function Name: PWM_SetCounterMode
 660:.\Generated_Source\PSoC4/PWM.c **** ********************************************************************************
 661:.\Generated_Source\PSoC4/PWM.c **** *
 662:.\Generated_Source\PSoC4/PWM.c **** * Summary:
 663:.\Generated_Source\PSoC4/PWM.c **** *  Sets the counter mode.  Applicable to all modes except Quadrature Decoder
 664:.\Generated_Source\PSoC4/PWM.c **** *  and the PWM with a pseudo random output.
 665:.\Generated_Source\PSoC4/PWM.c **** *
 666:.\Generated_Source\PSoC4/PWM.c **** * Parameters:
ARM GAS  C:\Users\Terrance\AppData\Local\Temp\ccHh2A52.s 			page 28


 667:.\Generated_Source\PSoC4/PWM.c **** *  counterMode: Enumerated counter type values
 668:.\Generated_Source\PSoC4/PWM.c **** *   Values:
 669:.\Generated_Source\PSoC4/PWM.c **** *     - PWM_COUNT_UP       - Counts up
 670:.\Generated_Source\PSoC4/PWM.c **** *     - PWM_COUNT_DOWN     - Counts down
 671:.\Generated_Source\PSoC4/PWM.c **** *     - PWM_COUNT_UPDOWN0  - Counts up and down. Terminal count
 672:.\Generated_Source\PSoC4/PWM.c **** *                                         generated when counter reaches 0
 673:.\Generated_Source\PSoC4/PWM.c **** *     - PWM_COUNT_UPDOWN1  - Counts up and down. Terminal count
 674:.\Generated_Source\PSoC4/PWM.c **** *                                         generated both when counter reaches 0
 675:.\Generated_Source\PSoC4/PWM.c **** *                                         and period
 676:.\Generated_Source\PSoC4/PWM.c **** *
 677:.\Generated_Source\PSoC4/PWM.c **** * Return:
 678:.\Generated_Source\PSoC4/PWM.c **** *  None
 679:.\Generated_Source\PSoC4/PWM.c **** *
 680:.\Generated_Source\PSoC4/PWM.c **** *******************************************************************************/
 681:.\Generated_Source\PSoC4/PWM.c **** void PWM_SetCounterMode(uint32 counterMode)
 682:.\Generated_Source\PSoC4/PWM.c **** {
 874              		.loc 1 682 0
 875              		.cfi_startproc
 876 0000 90B5     		push	{r4, r7, lr}
 877              	.LCFI42:
 878              		.cfi_def_cfa_offset 12
 879              		.cfi_offset 4, -12
 880              		.cfi_offset 7, -8
 881              		.cfi_offset 14, -4
 882 0002 85B0     		sub	sp, sp, #20
 883              	.LCFI43:
 884              		.cfi_def_cfa_offset 32
 885 0004 00AF     		add	r7, sp, #0
 886              	.LCFI44:
 887              		.cfi_def_cfa_register 7
 888 0006 7860     		str	r0, [r7, #4]
 683:.\Generated_Source\PSoC4/PWM.c ****     uint8 enableInterrupts;
 684:.\Generated_Source\PSoC4/PWM.c **** 
 685:.\Generated_Source\PSoC4/PWM.c ****     enableInterrupts = CyEnterCriticalSection();
 889              		.loc 1 685 0
 890 0008 3C1C     		mov	r4, r7
 891 000a 0F34     		add	r4, r4, #15
 892 000c FFF7FEFF 		bl	CyEnterCriticalSection
 893 0010 031C     		mov	r3, r0
 894 0012 2370     		strb	r3, [r4]
 686:.\Generated_Source\PSoC4/PWM.c **** 
 687:.\Generated_Source\PSoC4/PWM.c ****     PWM_CONTROL_REG &= (uint32)~PWM_UPDOWN_MASK;
 895              		.loc 1 687 0
 896 0014 0A4B     		ldr	r3, .L49
 897 0016 0A4A     		ldr	r2, .L49
 898 0018 1168     		ldr	r1, [r2]
 899 001a 0A4A     		ldr	r2, .L49+4
 900 001c 0A40     		and	r2, r1
 901 001e 1A60     		str	r2, [r3]
 688:.\Generated_Source\PSoC4/PWM.c ****     PWM_CONTROL_REG |= counterMode;
 902              		.loc 1 688 0
 903 0020 074B     		ldr	r3, .L49
 904 0022 074A     		ldr	r2, .L49
 905 0024 1168     		ldr	r1, [r2]
 906 0026 7A68     		ldr	r2, [r7, #4]
 907 0028 0A43     		orr	r2, r1
 908 002a 1A60     		str	r2, [r3]
ARM GAS  C:\Users\Terrance\AppData\Local\Temp\ccHh2A52.s 			page 29


 689:.\Generated_Source\PSoC4/PWM.c **** 
 690:.\Generated_Source\PSoC4/PWM.c ****     CyExitCriticalSection(enableInterrupts);
 909              		.loc 1 690 0
 910 002c 3B1C     		mov	r3, r7
 911 002e 0F33     		add	r3, r3, #15
 912 0030 1B78     		ldrb	r3, [r3]
 913 0032 181C     		mov	r0, r3
 914 0034 FFF7FEFF 		bl	CyExitCriticalSection
 691:.\Generated_Source\PSoC4/PWM.c **** }
 915              		.loc 1 691 0
 916 0038 BD46     		mov	sp, r7
 917 003a 05B0     		add	sp, sp, #20
 918              		@ sp needed for prologue
 919 003c 90BD     		pop	{r4, r7, pc}
 920              	.L50:
 921 003e C046     		.align	2
 922              	.L49:
 923 0040 00010540 		.word	1074069760
 924 0044 FFFFFCFF 		.word	-196609
 925              		.cfi_endproc
 926              	.LFE15:
 927              		.size	PWM_SetCounterMode, .-PWM_SetCounterMode
 928              		.section	.text.PWM_WritePeriod,"ax",%progbits
 929              		.align	2
 930              		.global	PWM_WritePeriod
 931              		.code	16
 932              		.thumb_func
 933              		.type	PWM_WritePeriod, %function
 934              	PWM_WritePeriod:
 935              	.LFB16:
 692:.\Generated_Source\PSoC4/PWM.c **** 
 693:.\Generated_Source\PSoC4/PWM.c **** 
 694:.\Generated_Source\PSoC4/PWM.c **** /*******************************************************************************
 695:.\Generated_Source\PSoC4/PWM.c **** * Function Name: PWM_WritePeriod
 696:.\Generated_Source\PSoC4/PWM.c **** ********************************************************************************
 697:.\Generated_Source\PSoC4/PWM.c **** *
 698:.\Generated_Source\PSoC4/PWM.c **** * Summary:
 699:.\Generated_Source\PSoC4/PWM.c **** *  Writes the 16 bit period register with the new period value.
 700:.\Generated_Source\PSoC4/PWM.c **** *  To cause the counter to count for N cycles this register should be written
 701:.\Generated_Source\PSoC4/PWM.c **** *  with N-1 (counts from 0 to period inclusive).
 702:.\Generated_Source\PSoC4/PWM.c **** *
 703:.\Generated_Source\PSoC4/PWM.c **** * Parameters:
 704:.\Generated_Source\PSoC4/PWM.c **** *  period: Period value
 705:.\Generated_Source\PSoC4/PWM.c **** *
 706:.\Generated_Source\PSoC4/PWM.c **** * Return:
 707:.\Generated_Source\PSoC4/PWM.c **** *  None
 708:.\Generated_Source\PSoC4/PWM.c **** *
 709:.\Generated_Source\PSoC4/PWM.c **** *******************************************************************************/
 710:.\Generated_Source\PSoC4/PWM.c **** void PWM_WritePeriod(uint32 period)
 711:.\Generated_Source\PSoC4/PWM.c **** {
 936              		.loc 1 711 0
 937              		.cfi_startproc
 938 0000 80B5     		push	{r7, lr}
 939              	.LCFI45:
 940              		.cfi_def_cfa_offset 8
 941              		.cfi_offset 7, -8
 942              		.cfi_offset 14, -4
ARM GAS  C:\Users\Terrance\AppData\Local\Temp\ccHh2A52.s 			page 30


 943 0002 82B0     		sub	sp, sp, #8
 944              	.LCFI46:
 945              		.cfi_def_cfa_offset 16
 946 0004 00AF     		add	r7, sp, #0
 947              	.LCFI47:
 948              		.cfi_def_cfa_register 7
 949 0006 7860     		str	r0, [r7, #4]
 712:.\Generated_Source\PSoC4/PWM.c ****     PWM_PERIOD_REG = (period & PWM_16BIT_MASK);
 950              		.loc 1 712 0
 951 0008 034B     		ldr	r3, .L52
 952 000a 7A68     		ldr	r2, [r7, #4]
 953 000c 1204     		lsl	r2, r2, #16
 954 000e 120C     		lsr	r2, r2, #16
 955 0010 1A60     		str	r2, [r3]
 713:.\Generated_Source\PSoC4/PWM.c **** }
 956              		.loc 1 713 0
 957 0012 BD46     		mov	sp, r7
 958 0014 02B0     		add	sp, sp, #8
 959              		@ sp needed for prologue
 960 0016 80BD     		pop	{r7, pc}
 961              	.L53:
 962              		.align	2
 963              	.L52:
 964 0018 14010540 		.word	1074069780
 965              		.cfi_endproc
 966              	.LFE16:
 967              		.size	PWM_WritePeriod, .-PWM_WritePeriod
 968              		.section	.text.PWM_ReadPeriod,"ax",%progbits
 969              		.align	2
 970              		.global	PWM_ReadPeriod
 971              		.code	16
 972              		.thumb_func
 973              		.type	PWM_ReadPeriod, %function
 974              	PWM_ReadPeriod:
 975              	.LFB17:
 714:.\Generated_Source\PSoC4/PWM.c **** 
 715:.\Generated_Source\PSoC4/PWM.c **** 
 716:.\Generated_Source\PSoC4/PWM.c **** /*******************************************************************************
 717:.\Generated_Source\PSoC4/PWM.c **** * Function Name: PWM_ReadPeriod
 718:.\Generated_Source\PSoC4/PWM.c **** ********************************************************************************
 719:.\Generated_Source\PSoC4/PWM.c **** *
 720:.\Generated_Source\PSoC4/PWM.c **** * Summary:
 721:.\Generated_Source\PSoC4/PWM.c **** *  Reads the 16 bit period register.
 722:.\Generated_Source\PSoC4/PWM.c **** *
 723:.\Generated_Source\PSoC4/PWM.c **** * Parameters:
 724:.\Generated_Source\PSoC4/PWM.c **** *  None
 725:.\Generated_Source\PSoC4/PWM.c **** *
 726:.\Generated_Source\PSoC4/PWM.c **** * Return:
 727:.\Generated_Source\PSoC4/PWM.c **** *  Period value
 728:.\Generated_Source\PSoC4/PWM.c **** *
 729:.\Generated_Source\PSoC4/PWM.c **** *******************************************************************************/
 730:.\Generated_Source\PSoC4/PWM.c **** uint32 PWM_ReadPeriod(void)
 731:.\Generated_Source\PSoC4/PWM.c **** {
 976              		.loc 1 731 0
 977              		.cfi_startproc
 978 0000 80B5     		push	{r7, lr}
 979              	.LCFI48:
ARM GAS  C:\Users\Terrance\AppData\Local\Temp\ccHh2A52.s 			page 31


 980              		.cfi_def_cfa_offset 8
 981              		.cfi_offset 7, -8
 982              		.cfi_offset 14, -4
 983 0002 00AF     		add	r7, sp, #0
 984              	.LCFI49:
 985              		.cfi_def_cfa_register 7
 732:.\Generated_Source\PSoC4/PWM.c ****     return (PWM_PERIOD_REG & PWM_16BIT_MASK);
 986              		.loc 1 732 0
 987 0004 034B     		ldr	r3, .L56
 988 0006 1B68     		ldr	r3, [r3]
 989 0008 1B04     		lsl	r3, r3, #16
 990 000a 1B0C     		lsr	r3, r3, #16
 733:.\Generated_Source\PSoC4/PWM.c **** }
 991              		.loc 1 733 0
 992 000c 181C     		mov	r0, r3
 993 000e BD46     		mov	sp, r7
 994              		@ sp needed for prologue
 995 0010 80BD     		pop	{r7, pc}
 996              	.L57:
 997 0012 C046     		.align	2
 998              	.L56:
 999 0014 14010540 		.word	1074069780
 1000              		.cfi_endproc
 1001              	.LFE17:
 1002              		.size	PWM_ReadPeriod, .-PWM_ReadPeriod
 1003              		.section	.text.PWM_SetCompareSwap,"ax",%progbits
 1004              		.align	2
 1005              		.global	PWM_SetCompareSwap
 1006              		.code	16
 1007              		.thumb_func
 1008              		.type	PWM_SetCompareSwap, %function
 1009              	PWM_SetCompareSwap:
 1010              	.LFB18:
 734:.\Generated_Source\PSoC4/PWM.c **** 
 735:.\Generated_Source\PSoC4/PWM.c **** 
 736:.\Generated_Source\PSoC4/PWM.c **** /*******************************************************************************
 737:.\Generated_Source\PSoC4/PWM.c **** * Function Name: PWM_SetCompareSwap
 738:.\Generated_Source\PSoC4/PWM.c **** ********************************************************************************
 739:.\Generated_Source\PSoC4/PWM.c **** *
 740:.\Generated_Source\PSoC4/PWM.c **** * Summary:
 741:.\Generated_Source\PSoC4/PWM.c **** *  Writes the register that controls whether the compare registers are
 742:.\Generated_Source\PSoC4/PWM.c **** *  swapped. When enabled in the Timer/Counter mode(without capture) the swap
 743:.\Generated_Source\PSoC4/PWM.c **** *  occurs at a TC event. In the PWM mode the swap occurs at the next TC event
 744:.\Generated_Source\PSoC4/PWM.c **** *  following a hardware switch event.
 745:.\Generated_Source\PSoC4/PWM.c **** *
 746:.\Generated_Source\PSoC4/PWM.c **** * Parameters:
 747:.\Generated_Source\PSoC4/PWM.c **** *  swapEnable
 748:.\Generated_Source\PSoC4/PWM.c **** *   Values:
 749:.\Generated_Source\PSoC4/PWM.c **** *     - 0 - Disable swap
 750:.\Generated_Source\PSoC4/PWM.c **** *     - 1 - Enable swap
 751:.\Generated_Source\PSoC4/PWM.c **** *
 752:.\Generated_Source\PSoC4/PWM.c **** * Return:
 753:.\Generated_Source\PSoC4/PWM.c **** *  None
 754:.\Generated_Source\PSoC4/PWM.c **** *
 755:.\Generated_Source\PSoC4/PWM.c **** *******************************************************************************/
 756:.\Generated_Source\PSoC4/PWM.c **** void PWM_SetCompareSwap(uint32 swapEnable)
 757:.\Generated_Source\PSoC4/PWM.c **** {
ARM GAS  C:\Users\Terrance\AppData\Local\Temp\ccHh2A52.s 			page 32


 1011              		.loc 1 757 0
 1012              		.cfi_startproc
 1013 0000 90B5     		push	{r4, r7, lr}
 1014              	.LCFI50:
 1015              		.cfi_def_cfa_offset 12
 1016              		.cfi_offset 4, -12
 1017              		.cfi_offset 7, -8
 1018              		.cfi_offset 14, -4
 1019 0002 85B0     		sub	sp, sp, #20
 1020              	.LCFI51:
 1021              		.cfi_def_cfa_offset 32
 1022 0004 00AF     		add	r7, sp, #0
 1023              	.LCFI52:
 1024              		.cfi_def_cfa_register 7
 1025 0006 7860     		str	r0, [r7, #4]
 758:.\Generated_Source\PSoC4/PWM.c ****     uint8 enableInterrupts;
 759:.\Generated_Source\PSoC4/PWM.c **** 
 760:.\Generated_Source\PSoC4/PWM.c ****     enableInterrupts = CyEnterCriticalSection();
 1026              		.loc 1 760 0
 1027 0008 3C1C     		mov	r4, r7
 1028 000a 0F34     		add	r4, r4, #15
 1029 000c FFF7FEFF 		bl	CyEnterCriticalSection
 1030 0010 031C     		mov	r3, r0
 1031 0012 2370     		strb	r3, [r4]
 761:.\Generated_Source\PSoC4/PWM.c **** 
 762:.\Generated_Source\PSoC4/PWM.c ****     PWM_CONTROL_REG &= (uint32)~PWM_RELOAD_CC_MASK;
 1032              		.loc 1 762 0
 1033 0014 0B4B     		ldr	r3, .L59
 1034 0016 0B4A     		ldr	r2, .L59
 1035 0018 1268     		ldr	r2, [r2]
 1036 001a 0121     		mov	r1, #1
 1037 001c 8A43     		bic	r2, r1
 1038 001e 1A60     		str	r2, [r3]
 763:.\Generated_Source\PSoC4/PWM.c ****     PWM_CONTROL_REG |= (swapEnable & PWM_1BIT_MASK);
 1039              		.loc 1 763 0
 1040 0020 084B     		ldr	r3, .L59
 1041 0022 084A     		ldr	r2, .L59
 1042 0024 1168     		ldr	r1, [r2]
 1043 0026 7868     		ldr	r0, [r7, #4]
 1044 0028 0122     		mov	r2, #1
 1045 002a 0240     		and	r2, r0
 1046 002c 0A43     		orr	r2, r1
 1047 002e 1A60     		str	r2, [r3]
 764:.\Generated_Source\PSoC4/PWM.c **** 
 765:.\Generated_Source\PSoC4/PWM.c ****     CyExitCriticalSection(enableInterrupts);
 1048              		.loc 1 765 0
 1049 0030 3B1C     		mov	r3, r7
 1050 0032 0F33     		add	r3, r3, #15
 1051 0034 1B78     		ldrb	r3, [r3]
 1052 0036 181C     		mov	r0, r3
 1053 0038 FFF7FEFF 		bl	CyExitCriticalSection
 766:.\Generated_Source\PSoC4/PWM.c **** }
 1054              		.loc 1 766 0
 1055 003c BD46     		mov	sp, r7
 1056 003e 05B0     		add	sp, sp, #20
 1057              		@ sp needed for prologue
 1058 0040 90BD     		pop	{r4, r7, pc}
ARM GAS  C:\Users\Terrance\AppData\Local\Temp\ccHh2A52.s 			page 33


 1059              	.L60:
 1060 0042 C046     		.align	2
 1061              	.L59:
 1062 0044 00010540 		.word	1074069760
 1063              		.cfi_endproc
 1064              	.LFE18:
 1065              		.size	PWM_SetCompareSwap, .-PWM_SetCompareSwap
 1066              		.section	.text.PWM_WritePeriodBuf,"ax",%progbits
 1067              		.align	2
 1068              		.global	PWM_WritePeriodBuf
 1069              		.code	16
 1070              		.thumb_func
 1071              		.type	PWM_WritePeriodBuf, %function
 1072              	PWM_WritePeriodBuf:
 1073              	.LFB19:
 767:.\Generated_Source\PSoC4/PWM.c **** 
 768:.\Generated_Source\PSoC4/PWM.c **** 
 769:.\Generated_Source\PSoC4/PWM.c **** /*******************************************************************************
 770:.\Generated_Source\PSoC4/PWM.c **** * Function Name: PWM_WritePeriodBuf
 771:.\Generated_Source\PSoC4/PWM.c **** ********************************************************************************
 772:.\Generated_Source\PSoC4/PWM.c **** *
 773:.\Generated_Source\PSoC4/PWM.c **** * Summary:
 774:.\Generated_Source\PSoC4/PWM.c **** *  Writes the 16 bit period buf register with the new period value.
 775:.\Generated_Source\PSoC4/PWM.c **** *
 776:.\Generated_Source\PSoC4/PWM.c **** * Parameters:
 777:.\Generated_Source\PSoC4/PWM.c **** *  periodBuf: Period value
 778:.\Generated_Source\PSoC4/PWM.c **** *
 779:.\Generated_Source\PSoC4/PWM.c **** * Return:
 780:.\Generated_Source\PSoC4/PWM.c **** *  None
 781:.\Generated_Source\PSoC4/PWM.c **** *
 782:.\Generated_Source\PSoC4/PWM.c **** *******************************************************************************/
 783:.\Generated_Source\PSoC4/PWM.c **** void PWM_WritePeriodBuf(uint32 periodBuf)
 784:.\Generated_Source\PSoC4/PWM.c **** {
 1074              		.loc 1 784 0
 1075              		.cfi_startproc
 1076 0000 80B5     		push	{r7, lr}
 1077              	.LCFI53:
 1078              		.cfi_def_cfa_offset 8
 1079              		.cfi_offset 7, -8
 1080              		.cfi_offset 14, -4
 1081 0002 82B0     		sub	sp, sp, #8
 1082              	.LCFI54:
 1083              		.cfi_def_cfa_offset 16
 1084 0004 00AF     		add	r7, sp, #0
 1085              	.LCFI55:
 1086              		.cfi_def_cfa_register 7
 1087 0006 7860     		str	r0, [r7, #4]
 785:.\Generated_Source\PSoC4/PWM.c ****     PWM_PERIOD_BUF_REG = (periodBuf & PWM_16BIT_MASK);
 1088              		.loc 1 785 0
 1089 0008 034B     		ldr	r3, .L62
 1090 000a 7A68     		ldr	r2, [r7, #4]
 1091 000c 1204     		lsl	r2, r2, #16
 1092 000e 120C     		lsr	r2, r2, #16
 1093 0010 1A60     		str	r2, [r3]
 786:.\Generated_Source\PSoC4/PWM.c **** }
 1094              		.loc 1 786 0
 1095 0012 BD46     		mov	sp, r7
ARM GAS  C:\Users\Terrance\AppData\Local\Temp\ccHh2A52.s 			page 34


 1096 0014 02B0     		add	sp, sp, #8
 1097              		@ sp needed for prologue
 1098 0016 80BD     		pop	{r7, pc}
 1099              	.L63:
 1100              		.align	2
 1101              	.L62:
 1102 0018 18010540 		.word	1074069784
 1103              		.cfi_endproc
 1104              	.LFE19:
 1105              		.size	PWM_WritePeriodBuf, .-PWM_WritePeriodBuf
 1106              		.section	.text.PWM_ReadPeriodBuf,"ax",%progbits
 1107              		.align	2
 1108              		.global	PWM_ReadPeriodBuf
 1109              		.code	16
 1110              		.thumb_func
 1111              		.type	PWM_ReadPeriodBuf, %function
 1112              	PWM_ReadPeriodBuf:
 1113              	.LFB20:
 787:.\Generated_Source\PSoC4/PWM.c **** 
 788:.\Generated_Source\PSoC4/PWM.c **** 
 789:.\Generated_Source\PSoC4/PWM.c **** /*******************************************************************************
 790:.\Generated_Source\PSoC4/PWM.c **** * Function Name: PWM_ReadPeriodBuf
 791:.\Generated_Source\PSoC4/PWM.c **** ********************************************************************************
 792:.\Generated_Source\PSoC4/PWM.c **** *
 793:.\Generated_Source\PSoC4/PWM.c **** * Summary:
 794:.\Generated_Source\PSoC4/PWM.c **** *  Reads the 16 bit period buf register.
 795:.\Generated_Source\PSoC4/PWM.c **** *
 796:.\Generated_Source\PSoC4/PWM.c **** * Parameters:
 797:.\Generated_Source\PSoC4/PWM.c **** *  None
 798:.\Generated_Source\PSoC4/PWM.c **** *
 799:.\Generated_Source\PSoC4/PWM.c **** * Return:
 800:.\Generated_Source\PSoC4/PWM.c **** *  Period value
 801:.\Generated_Source\PSoC4/PWM.c **** *
 802:.\Generated_Source\PSoC4/PWM.c **** *******************************************************************************/
 803:.\Generated_Source\PSoC4/PWM.c **** uint32 PWM_ReadPeriodBuf(void)
 804:.\Generated_Source\PSoC4/PWM.c **** {
 1114              		.loc 1 804 0
 1115              		.cfi_startproc
 1116 0000 80B5     		push	{r7, lr}
 1117              	.LCFI56:
 1118              		.cfi_def_cfa_offset 8
 1119              		.cfi_offset 7, -8
 1120              		.cfi_offset 14, -4
 1121 0002 00AF     		add	r7, sp, #0
 1122              	.LCFI57:
 1123              		.cfi_def_cfa_register 7
 805:.\Generated_Source\PSoC4/PWM.c ****     return (PWM_PERIOD_BUF_REG & PWM_16BIT_MASK);
 1124              		.loc 1 805 0
 1125 0004 034B     		ldr	r3, .L66
 1126 0006 1B68     		ldr	r3, [r3]
 1127 0008 1B04     		lsl	r3, r3, #16
 1128 000a 1B0C     		lsr	r3, r3, #16
 806:.\Generated_Source\PSoC4/PWM.c **** }
 1129              		.loc 1 806 0
 1130 000c 181C     		mov	r0, r3
 1131 000e BD46     		mov	sp, r7
 1132              		@ sp needed for prologue
ARM GAS  C:\Users\Terrance\AppData\Local\Temp\ccHh2A52.s 			page 35


 1133 0010 80BD     		pop	{r7, pc}
 1134              	.L67:
 1135 0012 C046     		.align	2
 1136              	.L66:
 1137 0014 18010540 		.word	1074069784
 1138              		.cfi_endproc
 1139              	.LFE20:
 1140              		.size	PWM_ReadPeriodBuf, .-PWM_ReadPeriodBuf
 1141              		.section	.text.PWM_SetPeriodSwap,"ax",%progbits
 1142              		.align	2
 1143              		.global	PWM_SetPeriodSwap
 1144              		.code	16
 1145              		.thumb_func
 1146              		.type	PWM_SetPeriodSwap, %function
 1147              	PWM_SetPeriodSwap:
 1148              	.LFB21:
 807:.\Generated_Source\PSoC4/PWM.c **** 
 808:.\Generated_Source\PSoC4/PWM.c **** 
 809:.\Generated_Source\PSoC4/PWM.c **** /*******************************************************************************
 810:.\Generated_Source\PSoC4/PWM.c **** * Function Name: PWM_SetPeriodSwap
 811:.\Generated_Source\PSoC4/PWM.c **** ********************************************************************************
 812:.\Generated_Source\PSoC4/PWM.c **** *
 813:.\Generated_Source\PSoC4/PWM.c **** * Summary:
 814:.\Generated_Source\PSoC4/PWM.c **** *  Writes the register that controls whether the period registers are
 815:.\Generated_Source\PSoC4/PWM.c **** *  swapped. When enabled in Timer/Counter mode the swap occurs at a TC event.
 816:.\Generated_Source\PSoC4/PWM.c **** *  In the PWM mode the swap occurs at the next TC event following a hardware
 817:.\Generated_Source\PSoC4/PWM.c **** *  switch event.
 818:.\Generated_Source\PSoC4/PWM.c **** *
 819:.\Generated_Source\PSoC4/PWM.c **** * Parameters:
 820:.\Generated_Source\PSoC4/PWM.c **** *  swapEnable
 821:.\Generated_Source\PSoC4/PWM.c **** *   Values:
 822:.\Generated_Source\PSoC4/PWM.c **** *     - 0 - Disable swap
 823:.\Generated_Source\PSoC4/PWM.c **** *     - 1 - Enable swap
 824:.\Generated_Source\PSoC4/PWM.c **** *
 825:.\Generated_Source\PSoC4/PWM.c **** * Return:
 826:.\Generated_Source\PSoC4/PWM.c **** *  None
 827:.\Generated_Source\PSoC4/PWM.c **** *
 828:.\Generated_Source\PSoC4/PWM.c **** *******************************************************************************/
 829:.\Generated_Source\PSoC4/PWM.c **** void PWM_SetPeriodSwap(uint32 swapEnable)
 830:.\Generated_Source\PSoC4/PWM.c **** {
 1149              		.loc 1 830 0
 1150              		.cfi_startproc
 1151 0000 90B5     		push	{r4, r7, lr}
 1152              	.LCFI58:
 1153              		.cfi_def_cfa_offset 12
 1154              		.cfi_offset 4, -12
 1155              		.cfi_offset 7, -8
 1156              		.cfi_offset 14, -4
 1157 0002 85B0     		sub	sp, sp, #20
 1158              	.LCFI59:
 1159              		.cfi_def_cfa_offset 32
 1160 0004 00AF     		add	r7, sp, #0
 1161              	.LCFI60:
 1162              		.cfi_def_cfa_register 7
 1163 0006 7860     		str	r0, [r7, #4]
 831:.\Generated_Source\PSoC4/PWM.c ****     uint8 enableInterrupts;
 832:.\Generated_Source\PSoC4/PWM.c **** 
ARM GAS  C:\Users\Terrance\AppData\Local\Temp\ccHh2A52.s 			page 36


 833:.\Generated_Source\PSoC4/PWM.c ****     enableInterrupts = CyEnterCriticalSection();
 1164              		.loc 1 833 0
 1165 0008 3C1C     		mov	r4, r7
 1166 000a 0F34     		add	r4, r4, #15
 1167 000c FFF7FEFF 		bl	CyEnterCriticalSection
 1168 0010 031C     		mov	r3, r0
 1169 0012 2370     		strb	r3, [r4]
 834:.\Generated_Source\PSoC4/PWM.c **** 
 835:.\Generated_Source\PSoC4/PWM.c ****     PWM_CONTROL_REG &= (uint32)~PWM_RELOAD_PERIOD_MASK;
 1170              		.loc 1 835 0
 1171 0014 0B4B     		ldr	r3, .L69
 1172 0016 0B4A     		ldr	r2, .L69
 1173 0018 1268     		ldr	r2, [r2]
 1174 001a 0221     		mov	r1, #2
 1175 001c 8A43     		bic	r2, r1
 1176 001e 1A60     		str	r2, [r3]
 836:.\Generated_Source\PSoC4/PWM.c ****     PWM_CONTROL_REG |= ((uint32)((swapEnable & PWM_1BIT_MASK) <<
 1177              		.loc 1 836 0
 1178 0020 084B     		ldr	r3, .L69
 1179 0022 084A     		ldr	r2, .L69
 1180 0024 1168     		ldr	r1, [r2]
 1181 0026 7868     		ldr	r0, [r7, #4]
 1182 0028 0122     		mov	r2, #1
 1183 002a 0240     		and	r2, r0
 1184 002c 5200     		lsl	r2, r2, #1
 1185 002e 0A43     		orr	r2, r1
 1186 0030 1A60     		str	r2, [r3]
 837:.\Generated_Source\PSoC4/PWM.c ****                                                             PWM_RELOAD_PERIOD_SHIFT));
 838:.\Generated_Source\PSoC4/PWM.c **** 
 839:.\Generated_Source\PSoC4/PWM.c ****     CyExitCriticalSection(enableInterrupts);
 1187              		.loc 1 839 0
 1188 0032 3B1C     		mov	r3, r7
 1189 0034 0F33     		add	r3, r3, #15
 1190 0036 1B78     		ldrb	r3, [r3]
 1191 0038 181C     		mov	r0, r3
 1192 003a FFF7FEFF 		bl	CyExitCriticalSection
 840:.\Generated_Source\PSoC4/PWM.c **** }
 1193              		.loc 1 840 0
 1194 003e BD46     		mov	sp, r7
 1195 0040 05B0     		add	sp, sp, #20
 1196              		@ sp needed for prologue
 1197 0042 90BD     		pop	{r4, r7, pc}
 1198              	.L70:
 1199              		.align	2
 1200              	.L69:
 1201 0044 00010540 		.word	1074069760
 1202              		.cfi_endproc
 1203              	.LFE21:
 1204              		.size	PWM_SetPeriodSwap, .-PWM_SetPeriodSwap
 1205              		.section	.text.PWM_WriteCompare,"ax",%progbits
 1206              		.align	2
 1207              		.global	PWM_WriteCompare
 1208              		.code	16
 1209              		.thumb_func
 1210              		.type	PWM_WriteCompare, %function
 1211              	PWM_WriteCompare:
 1212              	.LFB22:
ARM GAS  C:\Users\Terrance\AppData\Local\Temp\ccHh2A52.s 			page 37


 841:.\Generated_Source\PSoC4/PWM.c **** 
 842:.\Generated_Source\PSoC4/PWM.c **** 
 843:.\Generated_Source\PSoC4/PWM.c **** /*******************************************************************************
 844:.\Generated_Source\PSoC4/PWM.c **** * Function Name: PWM_WriteCompare
 845:.\Generated_Source\PSoC4/PWM.c **** ********************************************************************************
 846:.\Generated_Source\PSoC4/PWM.c **** *
 847:.\Generated_Source\PSoC4/PWM.c **** * Summary:
 848:.\Generated_Source\PSoC4/PWM.c **** *  Writes the 16 bit compare register with the new compare value. Not
 849:.\Generated_Source\PSoC4/PWM.c **** *  applicable for Timer/Counter with Capture or in Quadrature Decoder modes.
 850:.\Generated_Source\PSoC4/PWM.c **** *
 851:.\Generated_Source\PSoC4/PWM.c **** * Parameters:
 852:.\Generated_Source\PSoC4/PWM.c **** *  compare: Compare value
 853:.\Generated_Source\PSoC4/PWM.c **** *
 854:.\Generated_Source\PSoC4/PWM.c **** * Return:
 855:.\Generated_Source\PSoC4/PWM.c **** *  None
 856:.\Generated_Source\PSoC4/PWM.c **** *
 857:.\Generated_Source\PSoC4/PWM.c **** *******************************************************************************/
 858:.\Generated_Source\PSoC4/PWM.c **** void PWM_WriteCompare(uint32 compare)
 859:.\Generated_Source\PSoC4/PWM.c **** {
 1213              		.loc 1 859 0
 1214              		.cfi_startproc
 1215 0000 80B5     		push	{r7, lr}
 1216              	.LCFI61:
 1217              		.cfi_def_cfa_offset 8
 1218              		.cfi_offset 7, -8
 1219              		.cfi_offset 14, -4
 1220 0002 82B0     		sub	sp, sp, #8
 1221              	.LCFI62:
 1222              		.cfi_def_cfa_offset 16
 1223 0004 00AF     		add	r7, sp, #0
 1224              	.LCFI63:
 1225              		.cfi_def_cfa_register 7
 1226 0006 7860     		str	r0, [r7, #4]
 860:.\Generated_Source\PSoC4/PWM.c ****     #if (PWM_CY_TCPWM_V2)
 861:.\Generated_Source\PSoC4/PWM.c ****         uint32 currentMode;
 862:.\Generated_Source\PSoC4/PWM.c ****     #endif /* (PWM_CY_TCPWM_V2) */
 863:.\Generated_Source\PSoC4/PWM.c **** 
 864:.\Generated_Source\PSoC4/PWM.c ****     #if (PWM_CY_TCPWM_V2)
 865:.\Generated_Source\PSoC4/PWM.c ****         currentMode = ((PWM_CONTROL_REG & PWM_UPDOWN_MASK) >> PWM_UPDOWN_SHIFT);
 866:.\Generated_Source\PSoC4/PWM.c **** 
 867:.\Generated_Source\PSoC4/PWM.c ****         if (PWM__COUNT_DOWN == currentMode)
 868:.\Generated_Source\PSoC4/PWM.c ****         {
 869:.\Generated_Source\PSoC4/PWM.c ****             PWM_COMP_CAP_REG = ((compare + 1u) & PWM_16BIT_MASK);
 870:.\Generated_Source\PSoC4/PWM.c ****         }
 871:.\Generated_Source\PSoC4/PWM.c ****         else if (PWM__COUNT_UP == currentMode)
 872:.\Generated_Source\PSoC4/PWM.c ****         {
 873:.\Generated_Source\PSoC4/PWM.c ****             PWM_COMP_CAP_REG = ((compare - 1u) & PWM_16BIT_MASK);
 874:.\Generated_Source\PSoC4/PWM.c ****         }
 875:.\Generated_Source\PSoC4/PWM.c ****         else
 876:.\Generated_Source\PSoC4/PWM.c ****         {
 877:.\Generated_Source\PSoC4/PWM.c ****             PWM_COMP_CAP_REG = (compare & PWM_16BIT_MASK);
 878:.\Generated_Source\PSoC4/PWM.c ****         }
 879:.\Generated_Source\PSoC4/PWM.c ****     #else
 880:.\Generated_Source\PSoC4/PWM.c ****         PWM_COMP_CAP_REG = (compare & PWM_16BIT_MASK);
 1227              		.loc 1 880 0
 1228 0008 034B     		ldr	r3, .L72
 1229 000a 7A68     		ldr	r2, [r7, #4]
ARM GAS  C:\Users\Terrance\AppData\Local\Temp\ccHh2A52.s 			page 38


 1230 000c 1204     		lsl	r2, r2, #16
 1231 000e 120C     		lsr	r2, r2, #16
 1232 0010 1A60     		str	r2, [r3]
 881:.\Generated_Source\PSoC4/PWM.c ****     #endif /* (PWM_CY_TCPWM_V2) */
 882:.\Generated_Source\PSoC4/PWM.c **** }
 1233              		.loc 1 882 0
 1234 0012 BD46     		mov	sp, r7
 1235 0014 02B0     		add	sp, sp, #8
 1236              		@ sp needed for prologue
 1237 0016 80BD     		pop	{r7, pc}
 1238              	.L73:
 1239              		.align	2
 1240              	.L72:
 1241 0018 0C010540 		.word	1074069772
 1242              		.cfi_endproc
 1243              	.LFE22:
 1244              		.size	PWM_WriteCompare, .-PWM_WriteCompare
 1245              		.section	.text.PWM_ReadCompare,"ax",%progbits
 1246              		.align	2
 1247              		.global	PWM_ReadCompare
 1248              		.code	16
 1249              		.thumb_func
 1250              		.type	PWM_ReadCompare, %function
 1251              	PWM_ReadCompare:
 1252              	.LFB23:
 883:.\Generated_Source\PSoC4/PWM.c **** 
 884:.\Generated_Source\PSoC4/PWM.c **** 
 885:.\Generated_Source\PSoC4/PWM.c **** /*******************************************************************************
 886:.\Generated_Source\PSoC4/PWM.c **** * Function Name: PWM_ReadCompare
 887:.\Generated_Source\PSoC4/PWM.c **** ********************************************************************************
 888:.\Generated_Source\PSoC4/PWM.c **** *
 889:.\Generated_Source\PSoC4/PWM.c **** * Summary:
 890:.\Generated_Source\PSoC4/PWM.c **** *  Reads the compare register. Not applicable for Timer/Counter with Capture
 891:.\Generated_Source\PSoC4/PWM.c **** *  or in Quadrature Decoder modes.
 892:.\Generated_Source\PSoC4/PWM.c **** *
 893:.\Generated_Source\PSoC4/PWM.c **** * Parameters:
 894:.\Generated_Source\PSoC4/PWM.c **** *  None
 895:.\Generated_Source\PSoC4/PWM.c **** *
 896:.\Generated_Source\PSoC4/PWM.c **** * Return:
 897:.\Generated_Source\PSoC4/PWM.c **** *  Compare value
 898:.\Generated_Source\PSoC4/PWM.c **** *
 899:.\Generated_Source\PSoC4/PWM.c **** *******************************************************************************/
 900:.\Generated_Source\PSoC4/PWM.c **** uint32 PWM_ReadCompare(void)
 901:.\Generated_Source\PSoC4/PWM.c **** {
 1253              		.loc 1 901 0
 1254              		.cfi_startproc
 1255 0000 80B5     		push	{r7, lr}
 1256              	.LCFI64:
 1257              		.cfi_def_cfa_offset 8
 1258              		.cfi_offset 7, -8
 1259              		.cfi_offset 14, -4
 1260 0002 00AF     		add	r7, sp, #0
 1261              	.LCFI65:
 1262              		.cfi_def_cfa_register 7
 902:.\Generated_Source\PSoC4/PWM.c ****     #if (PWM_CY_TCPWM_V2)
 903:.\Generated_Source\PSoC4/PWM.c ****         uint32 currentMode;
 904:.\Generated_Source\PSoC4/PWM.c ****         uint32 regVal;
ARM GAS  C:\Users\Terrance\AppData\Local\Temp\ccHh2A52.s 			page 39


 905:.\Generated_Source\PSoC4/PWM.c ****     #endif /* (PWM_CY_TCPWM_V2) */
 906:.\Generated_Source\PSoC4/PWM.c **** 
 907:.\Generated_Source\PSoC4/PWM.c ****     #if (PWM_CY_TCPWM_V2)
 908:.\Generated_Source\PSoC4/PWM.c ****         currentMode = ((PWM_CONTROL_REG & PWM_UPDOWN_MASK) >> PWM_UPDOWN_SHIFT);
 909:.\Generated_Source\PSoC4/PWM.c **** 
 910:.\Generated_Source\PSoC4/PWM.c ****         if (PWM__COUNT_DOWN == currentMode)
 911:.\Generated_Source\PSoC4/PWM.c ****         {
 912:.\Generated_Source\PSoC4/PWM.c ****             regVal = ((PWM_COMP_CAP_REG - 1u) & PWM_16BIT_MASK);
 913:.\Generated_Source\PSoC4/PWM.c ****         }
 914:.\Generated_Source\PSoC4/PWM.c ****         else if (PWM__COUNT_UP == currentMode)
 915:.\Generated_Source\PSoC4/PWM.c ****         {
 916:.\Generated_Source\PSoC4/PWM.c ****             regVal = ((PWM_COMP_CAP_REG + 1u) & PWM_16BIT_MASK);
 917:.\Generated_Source\PSoC4/PWM.c ****         }
 918:.\Generated_Source\PSoC4/PWM.c ****         else
 919:.\Generated_Source\PSoC4/PWM.c ****         {
 920:.\Generated_Source\PSoC4/PWM.c ****             regVal = (PWM_COMP_CAP_REG & PWM_16BIT_MASK);
 921:.\Generated_Source\PSoC4/PWM.c ****         }
 922:.\Generated_Source\PSoC4/PWM.c ****         return (regVal);
 923:.\Generated_Source\PSoC4/PWM.c ****     #else
 924:.\Generated_Source\PSoC4/PWM.c ****         return (PWM_COMP_CAP_REG & PWM_16BIT_MASK);
 1263              		.loc 1 924 0
 1264 0004 034B     		ldr	r3, .L76
 1265 0006 1B68     		ldr	r3, [r3]
 1266 0008 1B04     		lsl	r3, r3, #16
 1267 000a 1B0C     		lsr	r3, r3, #16
 925:.\Generated_Source\PSoC4/PWM.c ****     #endif /* (PWM_CY_TCPWM_V2) */
 926:.\Generated_Source\PSoC4/PWM.c **** }
 1268              		.loc 1 926 0
 1269 000c 181C     		mov	r0, r3
 1270 000e BD46     		mov	sp, r7
 1271              		@ sp needed for prologue
 1272 0010 80BD     		pop	{r7, pc}
 1273              	.L77:
 1274 0012 C046     		.align	2
 1275              	.L76:
 1276 0014 0C010540 		.word	1074069772
 1277              		.cfi_endproc
 1278              	.LFE23:
 1279              		.size	PWM_ReadCompare, .-PWM_ReadCompare
 1280              		.section	.text.PWM_WriteCompareBuf,"ax",%progbits
 1281              		.align	2
 1282              		.global	PWM_WriteCompareBuf
 1283              		.code	16
 1284              		.thumb_func
 1285              		.type	PWM_WriteCompareBuf, %function
 1286              	PWM_WriteCompareBuf:
 1287              	.LFB24:
 927:.\Generated_Source\PSoC4/PWM.c **** 
 928:.\Generated_Source\PSoC4/PWM.c **** 
 929:.\Generated_Source\PSoC4/PWM.c **** /*******************************************************************************
 930:.\Generated_Source\PSoC4/PWM.c **** * Function Name: PWM_WriteCompareBuf
 931:.\Generated_Source\PSoC4/PWM.c **** ********************************************************************************
 932:.\Generated_Source\PSoC4/PWM.c **** *
 933:.\Generated_Source\PSoC4/PWM.c **** * Summary:
 934:.\Generated_Source\PSoC4/PWM.c **** *  Writes the 16 bit compare buffer register with the new compare value. Not
 935:.\Generated_Source\PSoC4/PWM.c **** *  applicable for Timer/Counter with Capture or in Quadrature Decoder modes.
 936:.\Generated_Source\PSoC4/PWM.c **** *
ARM GAS  C:\Users\Terrance\AppData\Local\Temp\ccHh2A52.s 			page 40


 937:.\Generated_Source\PSoC4/PWM.c **** * Parameters:
 938:.\Generated_Source\PSoC4/PWM.c **** *  compareBuf: Compare value
 939:.\Generated_Source\PSoC4/PWM.c **** *
 940:.\Generated_Source\PSoC4/PWM.c **** * Return:
 941:.\Generated_Source\PSoC4/PWM.c **** *  None
 942:.\Generated_Source\PSoC4/PWM.c **** *
 943:.\Generated_Source\PSoC4/PWM.c **** *******************************************************************************/
 944:.\Generated_Source\PSoC4/PWM.c **** void PWM_WriteCompareBuf(uint32 compareBuf)
 945:.\Generated_Source\PSoC4/PWM.c **** {
 1288              		.loc 1 945 0
 1289              		.cfi_startproc
 1290 0000 80B5     		push	{r7, lr}
 1291              	.LCFI66:
 1292              		.cfi_def_cfa_offset 8
 1293              		.cfi_offset 7, -8
 1294              		.cfi_offset 14, -4
 1295 0002 82B0     		sub	sp, sp, #8
 1296              	.LCFI67:
 1297              		.cfi_def_cfa_offset 16
 1298 0004 00AF     		add	r7, sp, #0
 1299              	.LCFI68:
 1300              		.cfi_def_cfa_register 7
 1301 0006 7860     		str	r0, [r7, #4]
 946:.\Generated_Source\PSoC4/PWM.c ****     #if (PWM_CY_TCPWM_V2)
 947:.\Generated_Source\PSoC4/PWM.c ****         uint32 currentMode;
 948:.\Generated_Source\PSoC4/PWM.c ****     #endif /* (PWM_CY_TCPWM_V2) */
 949:.\Generated_Source\PSoC4/PWM.c **** 
 950:.\Generated_Source\PSoC4/PWM.c ****     #if (PWM_CY_TCPWM_V2)
 951:.\Generated_Source\PSoC4/PWM.c ****         currentMode = ((PWM_CONTROL_REG & PWM_UPDOWN_MASK) >> PWM_UPDOWN_SHIFT);
 952:.\Generated_Source\PSoC4/PWM.c **** 
 953:.\Generated_Source\PSoC4/PWM.c ****         if (PWM__COUNT_DOWN == currentMode)
 954:.\Generated_Source\PSoC4/PWM.c ****         {
 955:.\Generated_Source\PSoC4/PWM.c ****             PWM_COMP_CAP_BUF_REG = ((compareBuf + 1u) & PWM_16BIT_MASK);
 956:.\Generated_Source\PSoC4/PWM.c ****         }
 957:.\Generated_Source\PSoC4/PWM.c ****         else if (PWM__COUNT_UP == currentMode)
 958:.\Generated_Source\PSoC4/PWM.c ****         {
 959:.\Generated_Source\PSoC4/PWM.c ****             PWM_COMP_CAP_BUF_REG = ((compareBuf - 1u) & PWM_16BIT_MASK);
 960:.\Generated_Source\PSoC4/PWM.c ****         }
 961:.\Generated_Source\PSoC4/PWM.c ****         else
 962:.\Generated_Source\PSoC4/PWM.c ****         {
 963:.\Generated_Source\PSoC4/PWM.c ****             PWM_COMP_CAP_BUF_REG = (compareBuf & PWM_16BIT_MASK);
 964:.\Generated_Source\PSoC4/PWM.c ****         }
 965:.\Generated_Source\PSoC4/PWM.c ****     #else
 966:.\Generated_Source\PSoC4/PWM.c ****         PWM_COMP_CAP_BUF_REG = (compareBuf & PWM_16BIT_MASK);
 1302              		.loc 1 966 0
 1303 0008 034B     		ldr	r3, .L79
 1304 000a 7A68     		ldr	r2, [r7, #4]
 1305 000c 1204     		lsl	r2, r2, #16
 1306 000e 120C     		lsr	r2, r2, #16
 1307 0010 1A60     		str	r2, [r3]
 967:.\Generated_Source\PSoC4/PWM.c ****     #endif /* (PWM_CY_TCPWM_V2) */
 968:.\Generated_Source\PSoC4/PWM.c **** }
 1308              		.loc 1 968 0
 1309 0012 BD46     		mov	sp, r7
 1310 0014 02B0     		add	sp, sp, #8
 1311              		@ sp needed for prologue
 1312 0016 80BD     		pop	{r7, pc}
ARM GAS  C:\Users\Terrance\AppData\Local\Temp\ccHh2A52.s 			page 41


 1313              	.L80:
 1314              		.align	2
 1315              	.L79:
 1316 0018 10010540 		.word	1074069776
 1317              		.cfi_endproc
 1318              	.LFE24:
 1319              		.size	PWM_WriteCompareBuf, .-PWM_WriteCompareBuf
 1320              		.section	.text.PWM_ReadCompareBuf,"ax",%progbits
 1321              		.align	2
 1322              		.global	PWM_ReadCompareBuf
 1323              		.code	16
 1324              		.thumb_func
 1325              		.type	PWM_ReadCompareBuf, %function
 1326              	PWM_ReadCompareBuf:
 1327              	.LFB25:
 969:.\Generated_Source\PSoC4/PWM.c **** 
 970:.\Generated_Source\PSoC4/PWM.c **** 
 971:.\Generated_Source\PSoC4/PWM.c **** /*******************************************************************************
 972:.\Generated_Source\PSoC4/PWM.c **** * Function Name: PWM_ReadCompareBuf
 973:.\Generated_Source\PSoC4/PWM.c **** ********************************************************************************
 974:.\Generated_Source\PSoC4/PWM.c **** *
 975:.\Generated_Source\PSoC4/PWM.c **** * Summary:
 976:.\Generated_Source\PSoC4/PWM.c **** *  Reads the compare buffer register. Not applicable for Timer/Counter with
 977:.\Generated_Source\PSoC4/PWM.c **** *  Capture or in Quadrature Decoder modes.
 978:.\Generated_Source\PSoC4/PWM.c **** *
 979:.\Generated_Source\PSoC4/PWM.c **** * Parameters:
 980:.\Generated_Source\PSoC4/PWM.c **** *  None
 981:.\Generated_Source\PSoC4/PWM.c **** *
 982:.\Generated_Source\PSoC4/PWM.c **** * Return:
 983:.\Generated_Source\PSoC4/PWM.c **** *  Compare buffer value
 984:.\Generated_Source\PSoC4/PWM.c **** *
 985:.\Generated_Source\PSoC4/PWM.c **** *******************************************************************************/
 986:.\Generated_Source\PSoC4/PWM.c **** uint32 PWM_ReadCompareBuf(void)
 987:.\Generated_Source\PSoC4/PWM.c **** {
 1328              		.loc 1 987 0
 1329              		.cfi_startproc
 1330 0000 80B5     		push	{r7, lr}
 1331              	.LCFI69:
 1332              		.cfi_def_cfa_offset 8
 1333              		.cfi_offset 7, -8
 1334              		.cfi_offset 14, -4
 1335 0002 00AF     		add	r7, sp, #0
 1336              	.LCFI70:
 1337              		.cfi_def_cfa_register 7
 988:.\Generated_Source\PSoC4/PWM.c ****     #if (PWM_CY_TCPWM_V2)
 989:.\Generated_Source\PSoC4/PWM.c ****         uint32 currentMode;
 990:.\Generated_Source\PSoC4/PWM.c ****         uint32 regVal;
 991:.\Generated_Source\PSoC4/PWM.c ****     #endif /* (PWM_CY_TCPWM_V2) */
 992:.\Generated_Source\PSoC4/PWM.c **** 
 993:.\Generated_Source\PSoC4/PWM.c ****     #if (PWM_CY_TCPWM_V2)
 994:.\Generated_Source\PSoC4/PWM.c ****         currentMode = ((PWM_CONTROL_REG & PWM_UPDOWN_MASK) >> PWM_UPDOWN_SHIFT);
 995:.\Generated_Source\PSoC4/PWM.c **** 
 996:.\Generated_Source\PSoC4/PWM.c ****         if (PWM__COUNT_DOWN == currentMode)
 997:.\Generated_Source\PSoC4/PWM.c ****         {
 998:.\Generated_Source\PSoC4/PWM.c ****             regVal = ((PWM_COMP_CAP_BUF_REG - 1u) & PWM_16BIT_MASK);
 999:.\Generated_Source\PSoC4/PWM.c ****         }
1000:.\Generated_Source\PSoC4/PWM.c ****         else if (PWM__COUNT_UP == currentMode)
ARM GAS  C:\Users\Terrance\AppData\Local\Temp\ccHh2A52.s 			page 42


1001:.\Generated_Source\PSoC4/PWM.c ****         {
1002:.\Generated_Source\PSoC4/PWM.c ****             regVal = ((PWM_COMP_CAP_BUF_REG + 1u) & PWM_16BIT_MASK);
1003:.\Generated_Source\PSoC4/PWM.c ****         }
1004:.\Generated_Source\PSoC4/PWM.c ****         else
1005:.\Generated_Source\PSoC4/PWM.c ****         {
1006:.\Generated_Source\PSoC4/PWM.c ****             regVal = (PWM_COMP_CAP_BUF_REG & PWM_16BIT_MASK);
1007:.\Generated_Source\PSoC4/PWM.c ****         }
1008:.\Generated_Source\PSoC4/PWM.c ****         return (regVal);
1009:.\Generated_Source\PSoC4/PWM.c ****     #else
1010:.\Generated_Source\PSoC4/PWM.c ****         return (PWM_COMP_CAP_BUF_REG & PWM_16BIT_MASK);
 1338              		.loc 1 1010 0
 1339 0004 034B     		ldr	r3, .L83
 1340 0006 1B68     		ldr	r3, [r3]
 1341 0008 1B04     		lsl	r3, r3, #16
 1342 000a 1B0C     		lsr	r3, r3, #16
1011:.\Generated_Source\PSoC4/PWM.c ****     #endif /* (PWM_CY_TCPWM_V2) */
1012:.\Generated_Source\PSoC4/PWM.c **** }
 1343              		.loc 1 1012 0
 1344 000c 181C     		mov	r0, r3
 1345 000e BD46     		mov	sp, r7
 1346              		@ sp needed for prologue
 1347 0010 80BD     		pop	{r7, pc}
 1348              	.L84:
 1349 0012 C046     		.align	2
 1350              	.L83:
 1351 0014 10010540 		.word	1074069776
 1352              		.cfi_endproc
 1353              	.LFE25:
 1354              		.size	PWM_ReadCompareBuf, .-PWM_ReadCompareBuf
 1355              		.section	.text.PWM_ReadCapture,"ax",%progbits
 1356              		.align	2
 1357              		.global	PWM_ReadCapture
 1358              		.code	16
 1359              		.thumb_func
 1360              		.type	PWM_ReadCapture, %function
 1361              	PWM_ReadCapture:
 1362              	.LFB26:
1013:.\Generated_Source\PSoC4/PWM.c **** 
1014:.\Generated_Source\PSoC4/PWM.c **** 
1015:.\Generated_Source\PSoC4/PWM.c **** /*******************************************************************************
1016:.\Generated_Source\PSoC4/PWM.c **** * Function Name: PWM_ReadCapture
1017:.\Generated_Source\PSoC4/PWM.c **** ********************************************************************************
1018:.\Generated_Source\PSoC4/PWM.c **** *
1019:.\Generated_Source\PSoC4/PWM.c **** * Summary:
1020:.\Generated_Source\PSoC4/PWM.c **** *  Reads the captured counter value. This API is applicable only for
1021:.\Generated_Source\PSoC4/PWM.c **** *  Timer/Counter with the capture mode and Quadrature Decoder modes.
1022:.\Generated_Source\PSoC4/PWM.c **** *
1023:.\Generated_Source\PSoC4/PWM.c **** * Parameters:
1024:.\Generated_Source\PSoC4/PWM.c **** *  None
1025:.\Generated_Source\PSoC4/PWM.c **** *
1026:.\Generated_Source\PSoC4/PWM.c **** * Return:
1027:.\Generated_Source\PSoC4/PWM.c **** *  Capture value
1028:.\Generated_Source\PSoC4/PWM.c **** *
1029:.\Generated_Source\PSoC4/PWM.c **** *******************************************************************************/
1030:.\Generated_Source\PSoC4/PWM.c **** uint32 PWM_ReadCapture(void)
1031:.\Generated_Source\PSoC4/PWM.c **** {
 1363              		.loc 1 1031 0
ARM GAS  C:\Users\Terrance\AppData\Local\Temp\ccHh2A52.s 			page 43


 1364              		.cfi_startproc
 1365 0000 80B5     		push	{r7, lr}
 1366              	.LCFI71:
 1367              		.cfi_def_cfa_offset 8
 1368              		.cfi_offset 7, -8
 1369              		.cfi_offset 14, -4
 1370 0002 00AF     		add	r7, sp, #0
 1371              	.LCFI72:
 1372              		.cfi_def_cfa_register 7
1032:.\Generated_Source\PSoC4/PWM.c ****     return (PWM_COMP_CAP_REG & PWM_16BIT_MASK);
 1373              		.loc 1 1032 0
 1374 0004 034B     		ldr	r3, .L87
 1375 0006 1B68     		ldr	r3, [r3]
 1376 0008 1B04     		lsl	r3, r3, #16
 1377 000a 1B0C     		lsr	r3, r3, #16
1033:.\Generated_Source\PSoC4/PWM.c **** }
 1378              		.loc 1 1033 0
 1379 000c 181C     		mov	r0, r3
 1380 000e BD46     		mov	sp, r7
 1381              		@ sp needed for prologue
 1382 0010 80BD     		pop	{r7, pc}
 1383              	.L88:
 1384 0012 C046     		.align	2
 1385              	.L87:
 1386 0014 0C010540 		.word	1074069772
 1387              		.cfi_endproc
 1388              	.LFE26:
 1389              		.size	PWM_ReadCapture, .-PWM_ReadCapture
 1390              		.section	.text.PWM_ReadCaptureBuf,"ax",%progbits
 1391              		.align	2
 1392              		.global	PWM_ReadCaptureBuf
 1393              		.code	16
 1394              		.thumb_func
 1395              		.type	PWM_ReadCaptureBuf, %function
 1396              	PWM_ReadCaptureBuf:
 1397              	.LFB27:
1034:.\Generated_Source\PSoC4/PWM.c **** 
1035:.\Generated_Source\PSoC4/PWM.c **** 
1036:.\Generated_Source\PSoC4/PWM.c **** /*******************************************************************************
1037:.\Generated_Source\PSoC4/PWM.c **** * Function Name: PWM_ReadCaptureBuf
1038:.\Generated_Source\PSoC4/PWM.c **** ********************************************************************************
1039:.\Generated_Source\PSoC4/PWM.c **** *
1040:.\Generated_Source\PSoC4/PWM.c **** * Summary:
1041:.\Generated_Source\PSoC4/PWM.c **** *  Reads the capture buffer register. This API is applicable only for
1042:.\Generated_Source\PSoC4/PWM.c **** *  Timer/Counter with the capture mode and Quadrature Decoder modes.
1043:.\Generated_Source\PSoC4/PWM.c **** *
1044:.\Generated_Source\PSoC4/PWM.c **** * Parameters:
1045:.\Generated_Source\PSoC4/PWM.c **** *  None
1046:.\Generated_Source\PSoC4/PWM.c **** *
1047:.\Generated_Source\PSoC4/PWM.c **** * Return:
1048:.\Generated_Source\PSoC4/PWM.c **** *  Capture buffer value
1049:.\Generated_Source\PSoC4/PWM.c **** *
1050:.\Generated_Source\PSoC4/PWM.c **** *******************************************************************************/
1051:.\Generated_Source\PSoC4/PWM.c **** uint32 PWM_ReadCaptureBuf(void)
1052:.\Generated_Source\PSoC4/PWM.c **** {
 1398              		.loc 1 1052 0
 1399              		.cfi_startproc
ARM GAS  C:\Users\Terrance\AppData\Local\Temp\ccHh2A52.s 			page 44


 1400 0000 80B5     		push	{r7, lr}
 1401              	.LCFI73:
 1402              		.cfi_def_cfa_offset 8
 1403              		.cfi_offset 7, -8
 1404              		.cfi_offset 14, -4
 1405 0002 00AF     		add	r7, sp, #0
 1406              	.LCFI74:
 1407              		.cfi_def_cfa_register 7
1053:.\Generated_Source\PSoC4/PWM.c ****     return (PWM_COMP_CAP_BUF_REG & PWM_16BIT_MASK);
 1408              		.loc 1 1053 0
 1409 0004 034B     		ldr	r3, .L91
 1410 0006 1B68     		ldr	r3, [r3]
 1411 0008 1B04     		lsl	r3, r3, #16
 1412 000a 1B0C     		lsr	r3, r3, #16
1054:.\Generated_Source\PSoC4/PWM.c **** }
 1413              		.loc 1 1054 0
 1414 000c 181C     		mov	r0, r3
 1415 000e BD46     		mov	sp, r7
 1416              		@ sp needed for prologue
 1417 0010 80BD     		pop	{r7, pc}
 1418              	.L92:
 1419 0012 C046     		.align	2
 1420              	.L91:
 1421 0014 10010540 		.word	1074069776
 1422              		.cfi_endproc
 1423              	.LFE27:
 1424              		.size	PWM_ReadCaptureBuf, .-PWM_ReadCaptureBuf
 1425              		.section	.text.PWM_SetCaptureMode,"ax",%progbits
 1426              		.align	2
 1427              		.global	PWM_SetCaptureMode
 1428              		.code	16
 1429              		.thumb_func
 1430              		.type	PWM_SetCaptureMode, %function
 1431              	PWM_SetCaptureMode:
 1432              	.LFB28:
1055:.\Generated_Source\PSoC4/PWM.c **** 
1056:.\Generated_Source\PSoC4/PWM.c **** 
1057:.\Generated_Source\PSoC4/PWM.c **** /*******************************************************************************
1058:.\Generated_Source\PSoC4/PWM.c **** * Function Name: PWM_SetCaptureMode
1059:.\Generated_Source\PSoC4/PWM.c **** ********************************************************************************
1060:.\Generated_Source\PSoC4/PWM.c **** *
1061:.\Generated_Source\PSoC4/PWM.c **** * Summary:
1062:.\Generated_Source\PSoC4/PWM.c **** *  Sets the capture trigger mode. For PWM mode this is the switch input.
1063:.\Generated_Source\PSoC4/PWM.c **** *  This input is not applicable to the Timer/Counter without Capture and
1064:.\Generated_Source\PSoC4/PWM.c **** *  Quadrature Decoder modes.
1065:.\Generated_Source\PSoC4/PWM.c **** *
1066:.\Generated_Source\PSoC4/PWM.c **** * Parameters:
1067:.\Generated_Source\PSoC4/PWM.c **** *  triggerMode: Enumerated trigger mode value
1068:.\Generated_Source\PSoC4/PWM.c **** *   Values:
1069:.\Generated_Source\PSoC4/PWM.c **** *     - PWM_TRIG_LEVEL     - Level
1070:.\Generated_Source\PSoC4/PWM.c **** *     - PWM_TRIG_RISING    - Rising edge
1071:.\Generated_Source\PSoC4/PWM.c **** *     - PWM_TRIG_FALLING   - Falling edge
1072:.\Generated_Source\PSoC4/PWM.c **** *     - PWM_TRIG_BOTH      - Both rising and falling edge
1073:.\Generated_Source\PSoC4/PWM.c **** *
1074:.\Generated_Source\PSoC4/PWM.c **** * Return:
1075:.\Generated_Source\PSoC4/PWM.c **** *  None
1076:.\Generated_Source\PSoC4/PWM.c **** *
ARM GAS  C:\Users\Terrance\AppData\Local\Temp\ccHh2A52.s 			page 45


1077:.\Generated_Source\PSoC4/PWM.c **** *******************************************************************************/
1078:.\Generated_Source\PSoC4/PWM.c **** void PWM_SetCaptureMode(uint32 triggerMode)
1079:.\Generated_Source\PSoC4/PWM.c **** {
 1433              		.loc 1 1079 0
 1434              		.cfi_startproc
 1435 0000 90B5     		push	{r4, r7, lr}
 1436              	.LCFI75:
 1437              		.cfi_def_cfa_offset 12
 1438              		.cfi_offset 4, -12
 1439              		.cfi_offset 7, -8
 1440              		.cfi_offset 14, -4
 1441 0002 85B0     		sub	sp, sp, #20
 1442              	.LCFI76:
 1443              		.cfi_def_cfa_offset 32
 1444 0004 00AF     		add	r7, sp, #0
 1445              	.LCFI77:
 1446              		.cfi_def_cfa_register 7
 1447 0006 7860     		str	r0, [r7, #4]
1080:.\Generated_Source\PSoC4/PWM.c ****     uint8 enableInterrupts;
1081:.\Generated_Source\PSoC4/PWM.c **** 
1082:.\Generated_Source\PSoC4/PWM.c ****     enableInterrupts = CyEnterCriticalSection();
 1448              		.loc 1 1082 0
 1449 0008 3C1C     		mov	r4, r7
 1450 000a 0F34     		add	r4, r4, #15
 1451 000c FFF7FEFF 		bl	CyEnterCriticalSection
 1452 0010 031C     		mov	r3, r0
 1453 0012 2370     		strb	r3, [r4]
1083:.\Generated_Source\PSoC4/PWM.c **** 
1084:.\Generated_Source\PSoC4/PWM.c ****     PWM_TRIG_CONTROL1_REG &= (uint32)~PWM_CAPTURE_MASK;
 1454              		.loc 1 1084 0
 1455 0014 0A4B     		ldr	r3, .L94
 1456 0016 0A4A     		ldr	r2, .L94
 1457 0018 1268     		ldr	r2, [r2]
 1458 001a 0321     		mov	r1, #3
 1459 001c 8A43     		bic	r2, r1
 1460 001e 1A60     		str	r2, [r3]
1085:.\Generated_Source\PSoC4/PWM.c ****     PWM_TRIG_CONTROL1_REG |= triggerMode;
 1461              		.loc 1 1085 0
 1462 0020 074B     		ldr	r3, .L94
 1463 0022 074A     		ldr	r2, .L94
 1464 0024 1168     		ldr	r1, [r2]
 1465 0026 7A68     		ldr	r2, [r7, #4]
 1466 0028 0A43     		orr	r2, r1
 1467 002a 1A60     		str	r2, [r3]
1086:.\Generated_Source\PSoC4/PWM.c **** 
1087:.\Generated_Source\PSoC4/PWM.c ****     CyExitCriticalSection(enableInterrupts);
 1468              		.loc 1 1087 0
 1469 002c 3B1C     		mov	r3, r7
 1470 002e 0F33     		add	r3, r3, #15
 1471 0030 1B78     		ldrb	r3, [r3]
 1472 0032 181C     		mov	r0, r3
 1473 0034 FFF7FEFF 		bl	CyExitCriticalSection
1088:.\Generated_Source\PSoC4/PWM.c **** }
 1474              		.loc 1 1088 0
 1475 0038 BD46     		mov	sp, r7
 1476 003a 05B0     		add	sp, sp, #20
 1477              		@ sp needed for prologue
ARM GAS  C:\Users\Terrance\AppData\Local\Temp\ccHh2A52.s 			page 46


 1478 003c 90BD     		pop	{r4, r7, pc}
 1479              	.L95:
 1480 003e C046     		.align	2
 1481              	.L94:
 1482 0040 24010540 		.word	1074069796
 1483              		.cfi_endproc
 1484              	.LFE28:
 1485              		.size	PWM_SetCaptureMode, .-PWM_SetCaptureMode
 1486              		.section	.text.PWM_SetReloadMode,"ax",%progbits
 1487              		.align	2
 1488              		.global	PWM_SetReloadMode
 1489              		.code	16
 1490              		.thumb_func
 1491              		.type	PWM_SetReloadMode, %function
 1492              	PWM_SetReloadMode:
 1493              	.LFB29:
1089:.\Generated_Source\PSoC4/PWM.c **** 
1090:.\Generated_Source\PSoC4/PWM.c **** 
1091:.\Generated_Source\PSoC4/PWM.c **** /*******************************************************************************
1092:.\Generated_Source\PSoC4/PWM.c **** * Function Name: PWM_SetReloadMode
1093:.\Generated_Source\PSoC4/PWM.c **** ********************************************************************************
1094:.\Generated_Source\PSoC4/PWM.c **** *
1095:.\Generated_Source\PSoC4/PWM.c **** * Summary:
1096:.\Generated_Source\PSoC4/PWM.c **** *  Sets the reload trigger mode. For Quadrature Decoder mode this is the index
1097:.\Generated_Source\PSoC4/PWM.c **** *  input.
1098:.\Generated_Source\PSoC4/PWM.c **** *
1099:.\Generated_Source\PSoC4/PWM.c **** * Parameters:
1100:.\Generated_Source\PSoC4/PWM.c **** *  triggerMode: Enumerated trigger mode value
1101:.\Generated_Source\PSoC4/PWM.c **** *   Values:
1102:.\Generated_Source\PSoC4/PWM.c **** *     - PWM_TRIG_LEVEL     - Level
1103:.\Generated_Source\PSoC4/PWM.c **** *     - PWM_TRIG_RISING    - Rising edge
1104:.\Generated_Source\PSoC4/PWM.c **** *     - PWM_TRIG_FALLING   - Falling edge
1105:.\Generated_Source\PSoC4/PWM.c **** *     - PWM_TRIG_BOTH      - Both rising and falling edge
1106:.\Generated_Source\PSoC4/PWM.c **** *
1107:.\Generated_Source\PSoC4/PWM.c **** * Return:
1108:.\Generated_Source\PSoC4/PWM.c **** *  None
1109:.\Generated_Source\PSoC4/PWM.c **** *
1110:.\Generated_Source\PSoC4/PWM.c **** *******************************************************************************/
1111:.\Generated_Source\PSoC4/PWM.c **** void PWM_SetReloadMode(uint32 triggerMode)
1112:.\Generated_Source\PSoC4/PWM.c **** {
 1494              		.loc 1 1112 0
 1495              		.cfi_startproc
 1496 0000 90B5     		push	{r4, r7, lr}
 1497              	.LCFI78:
 1498              		.cfi_def_cfa_offset 12
 1499              		.cfi_offset 4, -12
 1500              		.cfi_offset 7, -8
 1501              		.cfi_offset 14, -4
 1502 0002 85B0     		sub	sp, sp, #20
 1503              	.LCFI79:
 1504              		.cfi_def_cfa_offset 32
 1505 0004 00AF     		add	r7, sp, #0
 1506              	.LCFI80:
 1507              		.cfi_def_cfa_register 7
 1508 0006 7860     		str	r0, [r7, #4]
1113:.\Generated_Source\PSoC4/PWM.c ****     uint8 enableInterrupts;
1114:.\Generated_Source\PSoC4/PWM.c **** 
ARM GAS  C:\Users\Terrance\AppData\Local\Temp\ccHh2A52.s 			page 47


1115:.\Generated_Source\PSoC4/PWM.c ****     enableInterrupts = CyEnterCriticalSection();
 1509              		.loc 1 1115 0
 1510 0008 3C1C     		mov	r4, r7
 1511 000a 0F34     		add	r4, r4, #15
 1512 000c FFF7FEFF 		bl	CyEnterCriticalSection
 1513 0010 031C     		mov	r3, r0
 1514 0012 2370     		strb	r3, [r4]
1116:.\Generated_Source\PSoC4/PWM.c **** 
1117:.\Generated_Source\PSoC4/PWM.c ****     PWM_TRIG_CONTROL1_REG &= (uint32)~PWM_RELOAD_MASK;
 1515              		.loc 1 1117 0
 1516 0014 0A4B     		ldr	r3, .L97
 1517 0016 0A4A     		ldr	r2, .L97
 1518 0018 1268     		ldr	r2, [r2]
 1519 001a 3021     		mov	r1, #48
 1520 001c 8A43     		bic	r2, r1
 1521 001e 1A60     		str	r2, [r3]
1118:.\Generated_Source\PSoC4/PWM.c ****     PWM_TRIG_CONTROL1_REG |= ((uint32)(triggerMode << PWM_RELOAD_SHIFT));
 1522              		.loc 1 1118 0
 1523 0020 074B     		ldr	r3, .L97
 1524 0022 074A     		ldr	r2, .L97
 1525 0024 1168     		ldr	r1, [r2]
 1526 0026 7A68     		ldr	r2, [r7, #4]
 1527 0028 1201     		lsl	r2, r2, #4
 1528 002a 0A43     		orr	r2, r1
 1529 002c 1A60     		str	r2, [r3]
1119:.\Generated_Source\PSoC4/PWM.c **** 
1120:.\Generated_Source\PSoC4/PWM.c ****     CyExitCriticalSection(enableInterrupts);
 1530              		.loc 1 1120 0
 1531 002e 3B1C     		mov	r3, r7
 1532 0030 0F33     		add	r3, r3, #15
 1533 0032 1B78     		ldrb	r3, [r3]
 1534 0034 181C     		mov	r0, r3
 1535 0036 FFF7FEFF 		bl	CyExitCriticalSection
1121:.\Generated_Source\PSoC4/PWM.c **** }
 1536              		.loc 1 1121 0
 1537 003a BD46     		mov	sp, r7
 1538 003c 05B0     		add	sp, sp, #20
 1539              		@ sp needed for prologue
 1540 003e 90BD     		pop	{r4, r7, pc}
 1541              	.L98:
 1542              		.align	2
 1543              	.L97:
 1544 0040 24010540 		.word	1074069796
 1545              		.cfi_endproc
 1546              	.LFE29:
 1547              		.size	PWM_SetReloadMode, .-PWM_SetReloadMode
 1548              		.section	.text.PWM_SetStartMode,"ax",%progbits
 1549              		.align	2
 1550              		.global	PWM_SetStartMode
 1551              		.code	16
 1552              		.thumb_func
 1553              		.type	PWM_SetStartMode, %function
 1554              	PWM_SetStartMode:
 1555              	.LFB30:
1122:.\Generated_Source\PSoC4/PWM.c **** 
1123:.\Generated_Source\PSoC4/PWM.c **** 
1124:.\Generated_Source\PSoC4/PWM.c **** /*******************************************************************************
ARM GAS  C:\Users\Terrance\AppData\Local\Temp\ccHh2A52.s 			page 48


1125:.\Generated_Source\PSoC4/PWM.c **** * Function Name: PWM_SetStartMode
1126:.\Generated_Source\PSoC4/PWM.c **** ********************************************************************************
1127:.\Generated_Source\PSoC4/PWM.c **** *
1128:.\Generated_Source\PSoC4/PWM.c **** * Summary:
1129:.\Generated_Source\PSoC4/PWM.c **** *  Sets the start trigger mode. For Quadrature Decoder mode this is the
1130:.\Generated_Source\PSoC4/PWM.c **** *  phiB input.
1131:.\Generated_Source\PSoC4/PWM.c **** *
1132:.\Generated_Source\PSoC4/PWM.c **** * Parameters:
1133:.\Generated_Source\PSoC4/PWM.c **** *  triggerMode: Enumerated trigger mode value
1134:.\Generated_Source\PSoC4/PWM.c **** *   Values:
1135:.\Generated_Source\PSoC4/PWM.c **** *     - PWM_TRIG_LEVEL     - Level
1136:.\Generated_Source\PSoC4/PWM.c **** *     - PWM_TRIG_RISING    - Rising edge
1137:.\Generated_Source\PSoC4/PWM.c **** *     - PWM_TRIG_FALLING   - Falling edge
1138:.\Generated_Source\PSoC4/PWM.c **** *     - PWM_TRIG_BOTH      - Both rising and falling edge
1139:.\Generated_Source\PSoC4/PWM.c **** *
1140:.\Generated_Source\PSoC4/PWM.c **** * Return:
1141:.\Generated_Source\PSoC4/PWM.c **** *  None
1142:.\Generated_Source\PSoC4/PWM.c **** *
1143:.\Generated_Source\PSoC4/PWM.c **** *******************************************************************************/
1144:.\Generated_Source\PSoC4/PWM.c **** void PWM_SetStartMode(uint32 triggerMode)
1145:.\Generated_Source\PSoC4/PWM.c **** {
 1556              		.loc 1 1145 0
 1557              		.cfi_startproc
 1558 0000 90B5     		push	{r4, r7, lr}
 1559              	.LCFI81:
 1560              		.cfi_def_cfa_offset 12
 1561              		.cfi_offset 4, -12
 1562              		.cfi_offset 7, -8
 1563              		.cfi_offset 14, -4
 1564 0002 85B0     		sub	sp, sp, #20
 1565              	.LCFI82:
 1566              		.cfi_def_cfa_offset 32
 1567 0004 00AF     		add	r7, sp, #0
 1568              	.LCFI83:
 1569              		.cfi_def_cfa_register 7
 1570 0006 7860     		str	r0, [r7, #4]
1146:.\Generated_Source\PSoC4/PWM.c ****     uint8 enableInterrupts;
1147:.\Generated_Source\PSoC4/PWM.c **** 
1148:.\Generated_Source\PSoC4/PWM.c ****     enableInterrupts = CyEnterCriticalSection();
 1571              		.loc 1 1148 0
 1572 0008 3C1C     		mov	r4, r7
 1573 000a 0F34     		add	r4, r4, #15
 1574 000c FFF7FEFF 		bl	CyEnterCriticalSection
 1575 0010 031C     		mov	r3, r0
 1576 0012 2370     		strb	r3, [r4]
1149:.\Generated_Source\PSoC4/PWM.c **** 
1150:.\Generated_Source\PSoC4/PWM.c ****     PWM_TRIG_CONTROL1_REG &= (uint32)~PWM_START_MASK;
 1577              		.loc 1 1150 0
 1578 0014 0A4B     		ldr	r3, .L100
 1579 0016 0A4A     		ldr	r2, .L100
 1580 0018 1168     		ldr	r1, [r2]
 1581 001a 0A4A     		ldr	r2, .L100+4
 1582 001c 0A40     		and	r2, r1
 1583 001e 1A60     		str	r2, [r3]
1151:.\Generated_Source\PSoC4/PWM.c ****     PWM_TRIG_CONTROL1_REG |= ((uint32)(triggerMode << PWM_START_SHIFT));
 1584              		.loc 1 1151 0
 1585 0020 074B     		ldr	r3, .L100
ARM GAS  C:\Users\Terrance\AppData\Local\Temp\ccHh2A52.s 			page 49


 1586 0022 074A     		ldr	r2, .L100
 1587 0024 1168     		ldr	r1, [r2]
 1588 0026 7A68     		ldr	r2, [r7, #4]
 1589 0028 1202     		lsl	r2, r2, #8
 1590 002a 0A43     		orr	r2, r1
 1591 002c 1A60     		str	r2, [r3]
1152:.\Generated_Source\PSoC4/PWM.c **** 
1153:.\Generated_Source\PSoC4/PWM.c ****     CyExitCriticalSection(enableInterrupts);
 1592              		.loc 1 1153 0
 1593 002e 3B1C     		mov	r3, r7
 1594 0030 0F33     		add	r3, r3, #15
 1595 0032 1B78     		ldrb	r3, [r3]
 1596 0034 181C     		mov	r0, r3
 1597 0036 FFF7FEFF 		bl	CyExitCriticalSection
1154:.\Generated_Source\PSoC4/PWM.c **** }
 1598              		.loc 1 1154 0
 1599 003a BD46     		mov	sp, r7
 1600 003c 05B0     		add	sp, sp, #20
 1601              		@ sp needed for prologue
 1602 003e 90BD     		pop	{r4, r7, pc}
 1603              	.L101:
 1604              		.align	2
 1605              	.L100:
 1606 0040 24010540 		.word	1074069796
 1607 0044 FFFCFFFF 		.word	-769
 1608              		.cfi_endproc
 1609              	.LFE30:
 1610              		.size	PWM_SetStartMode, .-PWM_SetStartMode
 1611              		.section	.text.PWM_SetStopMode,"ax",%progbits
 1612              		.align	2
 1613              		.global	PWM_SetStopMode
 1614              		.code	16
 1615              		.thumb_func
 1616              		.type	PWM_SetStopMode, %function
 1617              	PWM_SetStopMode:
 1618              	.LFB31:
1155:.\Generated_Source\PSoC4/PWM.c **** 
1156:.\Generated_Source\PSoC4/PWM.c **** 
1157:.\Generated_Source\PSoC4/PWM.c **** /*******************************************************************************
1158:.\Generated_Source\PSoC4/PWM.c **** * Function Name: PWM_SetStopMode
1159:.\Generated_Source\PSoC4/PWM.c **** ********************************************************************************
1160:.\Generated_Source\PSoC4/PWM.c **** *
1161:.\Generated_Source\PSoC4/PWM.c **** * Summary:
1162:.\Generated_Source\PSoC4/PWM.c **** *  Sets the stop trigger mode. For PWM mode this is the kill input.
1163:.\Generated_Source\PSoC4/PWM.c **** *
1164:.\Generated_Source\PSoC4/PWM.c **** * Parameters:
1165:.\Generated_Source\PSoC4/PWM.c **** *  triggerMode: Enumerated trigger mode value
1166:.\Generated_Source\PSoC4/PWM.c **** *   Values:
1167:.\Generated_Source\PSoC4/PWM.c **** *     - PWM_TRIG_LEVEL     - Level
1168:.\Generated_Source\PSoC4/PWM.c **** *     - PWM_TRIG_RISING    - Rising edge
1169:.\Generated_Source\PSoC4/PWM.c **** *     - PWM_TRIG_FALLING   - Falling edge
1170:.\Generated_Source\PSoC4/PWM.c **** *     - PWM_TRIG_BOTH      - Both rising and falling edge
1171:.\Generated_Source\PSoC4/PWM.c **** *
1172:.\Generated_Source\PSoC4/PWM.c **** * Return:
1173:.\Generated_Source\PSoC4/PWM.c **** *  None
1174:.\Generated_Source\PSoC4/PWM.c **** *
1175:.\Generated_Source\PSoC4/PWM.c **** *******************************************************************************/
ARM GAS  C:\Users\Terrance\AppData\Local\Temp\ccHh2A52.s 			page 50


1176:.\Generated_Source\PSoC4/PWM.c **** void PWM_SetStopMode(uint32 triggerMode)
1177:.\Generated_Source\PSoC4/PWM.c **** {
 1619              		.loc 1 1177 0
 1620              		.cfi_startproc
 1621 0000 90B5     		push	{r4, r7, lr}
 1622              	.LCFI84:
 1623              		.cfi_def_cfa_offset 12
 1624              		.cfi_offset 4, -12
 1625              		.cfi_offset 7, -8
 1626              		.cfi_offset 14, -4
 1627 0002 85B0     		sub	sp, sp, #20
 1628              	.LCFI85:
 1629              		.cfi_def_cfa_offset 32
 1630 0004 00AF     		add	r7, sp, #0
 1631              	.LCFI86:
 1632              		.cfi_def_cfa_register 7
 1633 0006 7860     		str	r0, [r7, #4]
1178:.\Generated_Source\PSoC4/PWM.c ****     uint8 enableInterrupts;
1179:.\Generated_Source\PSoC4/PWM.c **** 
1180:.\Generated_Source\PSoC4/PWM.c ****     enableInterrupts = CyEnterCriticalSection();
 1634              		.loc 1 1180 0
 1635 0008 3C1C     		mov	r4, r7
 1636 000a 0F34     		add	r4, r4, #15
 1637 000c FFF7FEFF 		bl	CyEnterCriticalSection
 1638 0010 031C     		mov	r3, r0
 1639 0012 2370     		strb	r3, [r4]
1181:.\Generated_Source\PSoC4/PWM.c **** 
1182:.\Generated_Source\PSoC4/PWM.c ****     PWM_TRIG_CONTROL1_REG &= (uint32)~PWM_STOP_MASK;
 1640              		.loc 1 1182 0
 1641 0014 0A4B     		ldr	r3, .L103
 1642 0016 0A4A     		ldr	r2, .L103
 1643 0018 1268     		ldr	r2, [r2]
 1644 001a C021     		mov	r1, #192
 1645 001c 8A43     		bic	r2, r1
 1646 001e 1A60     		str	r2, [r3]
1183:.\Generated_Source\PSoC4/PWM.c ****     PWM_TRIG_CONTROL1_REG |= ((uint32)(triggerMode << PWM_STOP_SHIFT));
 1647              		.loc 1 1183 0
 1648 0020 074B     		ldr	r3, .L103
 1649 0022 074A     		ldr	r2, .L103
 1650 0024 1168     		ldr	r1, [r2]
 1651 0026 7A68     		ldr	r2, [r7, #4]
 1652 0028 9201     		lsl	r2, r2, #6
 1653 002a 0A43     		orr	r2, r1
 1654 002c 1A60     		str	r2, [r3]
1184:.\Generated_Source\PSoC4/PWM.c **** 
1185:.\Generated_Source\PSoC4/PWM.c ****     CyExitCriticalSection(enableInterrupts);
 1655              		.loc 1 1185 0
 1656 002e 3B1C     		mov	r3, r7
 1657 0030 0F33     		add	r3, r3, #15
 1658 0032 1B78     		ldrb	r3, [r3]
 1659 0034 181C     		mov	r0, r3
 1660 0036 FFF7FEFF 		bl	CyExitCriticalSection
1186:.\Generated_Source\PSoC4/PWM.c **** }
 1661              		.loc 1 1186 0
 1662 003a BD46     		mov	sp, r7
 1663 003c 05B0     		add	sp, sp, #20
 1664              		@ sp needed for prologue
ARM GAS  C:\Users\Terrance\AppData\Local\Temp\ccHh2A52.s 			page 51


 1665 003e 90BD     		pop	{r4, r7, pc}
 1666              	.L104:
 1667              		.align	2
 1668              	.L103:
 1669 0040 24010540 		.word	1074069796
 1670              		.cfi_endproc
 1671              	.LFE31:
 1672              		.size	PWM_SetStopMode, .-PWM_SetStopMode
 1673              		.section	.text.PWM_SetCountMode,"ax",%progbits
 1674              		.align	2
 1675              		.global	PWM_SetCountMode
 1676              		.code	16
 1677              		.thumb_func
 1678              		.type	PWM_SetCountMode, %function
 1679              	PWM_SetCountMode:
 1680              	.LFB32:
1187:.\Generated_Source\PSoC4/PWM.c **** 
1188:.\Generated_Source\PSoC4/PWM.c **** 
1189:.\Generated_Source\PSoC4/PWM.c **** /*******************************************************************************
1190:.\Generated_Source\PSoC4/PWM.c **** * Function Name: PWM_SetCountMode
1191:.\Generated_Source\PSoC4/PWM.c **** ********************************************************************************
1192:.\Generated_Source\PSoC4/PWM.c **** *
1193:.\Generated_Source\PSoC4/PWM.c **** * Summary:
1194:.\Generated_Source\PSoC4/PWM.c **** *  Sets the count trigger mode. For Quadrature Decoder mode this is the phiA
1195:.\Generated_Source\PSoC4/PWM.c **** *  input.
1196:.\Generated_Source\PSoC4/PWM.c **** *
1197:.\Generated_Source\PSoC4/PWM.c **** * Parameters:
1198:.\Generated_Source\PSoC4/PWM.c **** *  triggerMode: Enumerated trigger mode value
1199:.\Generated_Source\PSoC4/PWM.c **** *   Values:
1200:.\Generated_Source\PSoC4/PWM.c **** *     - PWM_TRIG_LEVEL     - Level
1201:.\Generated_Source\PSoC4/PWM.c **** *     - PWM_TRIG_RISING    - Rising edge
1202:.\Generated_Source\PSoC4/PWM.c **** *     - PWM_TRIG_FALLING   - Falling edge
1203:.\Generated_Source\PSoC4/PWM.c **** *     - PWM_TRIG_BOTH      - Both rising and falling edge
1204:.\Generated_Source\PSoC4/PWM.c **** *
1205:.\Generated_Source\PSoC4/PWM.c **** * Return:
1206:.\Generated_Source\PSoC4/PWM.c **** *  None
1207:.\Generated_Source\PSoC4/PWM.c **** *
1208:.\Generated_Source\PSoC4/PWM.c **** *******************************************************************************/
1209:.\Generated_Source\PSoC4/PWM.c **** void PWM_SetCountMode(uint32 triggerMode)
1210:.\Generated_Source\PSoC4/PWM.c **** {
 1681              		.loc 1 1210 0
 1682              		.cfi_startproc
 1683 0000 90B5     		push	{r4, r7, lr}
 1684              	.LCFI87:
 1685              		.cfi_def_cfa_offset 12
 1686              		.cfi_offset 4, -12
 1687              		.cfi_offset 7, -8
 1688              		.cfi_offset 14, -4
 1689 0002 85B0     		sub	sp, sp, #20
 1690              	.LCFI88:
 1691              		.cfi_def_cfa_offset 32
 1692 0004 00AF     		add	r7, sp, #0
 1693              	.LCFI89:
 1694              		.cfi_def_cfa_register 7
 1695 0006 7860     		str	r0, [r7, #4]
1211:.\Generated_Source\PSoC4/PWM.c ****     uint8 enableInterrupts;
1212:.\Generated_Source\PSoC4/PWM.c **** 
ARM GAS  C:\Users\Terrance\AppData\Local\Temp\ccHh2A52.s 			page 52


1213:.\Generated_Source\PSoC4/PWM.c ****     enableInterrupts = CyEnterCriticalSection();
 1696              		.loc 1 1213 0
 1697 0008 3C1C     		mov	r4, r7
 1698 000a 0F34     		add	r4, r4, #15
 1699 000c FFF7FEFF 		bl	CyEnterCriticalSection
 1700 0010 031C     		mov	r3, r0
 1701 0012 2370     		strb	r3, [r4]
1214:.\Generated_Source\PSoC4/PWM.c **** 
1215:.\Generated_Source\PSoC4/PWM.c ****     PWM_TRIG_CONTROL1_REG &= (uint32)~PWM_COUNT_MASK;
 1702              		.loc 1 1215 0
 1703 0014 0A4B     		ldr	r3, .L106
 1704 0016 0A4A     		ldr	r2, .L106
 1705 0018 1268     		ldr	r2, [r2]
 1706 001a 0C21     		mov	r1, #12
 1707 001c 8A43     		bic	r2, r1
 1708 001e 1A60     		str	r2, [r3]
1216:.\Generated_Source\PSoC4/PWM.c ****     PWM_TRIG_CONTROL1_REG |= ((uint32)(triggerMode << PWM_COUNT_SHIFT));
 1709              		.loc 1 1216 0
 1710 0020 074B     		ldr	r3, .L106
 1711 0022 074A     		ldr	r2, .L106
 1712 0024 1168     		ldr	r1, [r2]
 1713 0026 7A68     		ldr	r2, [r7, #4]
 1714 0028 9200     		lsl	r2, r2, #2
 1715 002a 0A43     		orr	r2, r1
 1716 002c 1A60     		str	r2, [r3]
1217:.\Generated_Source\PSoC4/PWM.c **** 
1218:.\Generated_Source\PSoC4/PWM.c ****     CyExitCriticalSection(enableInterrupts);
 1717              		.loc 1 1218 0
 1718 002e 3B1C     		mov	r3, r7
 1719 0030 0F33     		add	r3, r3, #15
 1720 0032 1B78     		ldrb	r3, [r3]
 1721 0034 181C     		mov	r0, r3
 1722 0036 FFF7FEFF 		bl	CyExitCriticalSection
1219:.\Generated_Source\PSoC4/PWM.c **** }
 1723              		.loc 1 1219 0
 1724 003a BD46     		mov	sp, r7
 1725 003c 05B0     		add	sp, sp, #20
 1726              		@ sp needed for prologue
 1727 003e 90BD     		pop	{r4, r7, pc}
 1728              	.L107:
 1729              		.align	2
 1730              	.L106:
 1731 0040 24010540 		.word	1074069796
 1732              		.cfi_endproc
 1733              	.LFE32:
 1734              		.size	PWM_SetCountMode, .-PWM_SetCountMode
 1735              		.section	.text.PWM_TriggerCommand,"ax",%progbits
 1736              		.align	2
 1737              		.global	PWM_TriggerCommand
 1738              		.code	16
 1739              		.thumb_func
 1740              		.type	PWM_TriggerCommand, %function
 1741              	PWM_TriggerCommand:
 1742              	.LFB33:
1220:.\Generated_Source\PSoC4/PWM.c **** 
1221:.\Generated_Source\PSoC4/PWM.c **** 
1222:.\Generated_Source\PSoC4/PWM.c **** /*******************************************************************************
ARM GAS  C:\Users\Terrance\AppData\Local\Temp\ccHh2A52.s 			page 53


1223:.\Generated_Source\PSoC4/PWM.c **** * Function Name: PWM_TriggerCommand
1224:.\Generated_Source\PSoC4/PWM.c **** ********************************************************************************
1225:.\Generated_Source\PSoC4/PWM.c **** *
1226:.\Generated_Source\PSoC4/PWM.c **** * Summary:
1227:.\Generated_Source\PSoC4/PWM.c **** *  Triggers the designated command to occur on the designated TCPWM instances.
1228:.\Generated_Source\PSoC4/PWM.c **** *  The mask can be used to apply this command simultaneously to more than one
1229:.\Generated_Source\PSoC4/PWM.c **** *  instance.  This allows multiple TCPWM instances to be synchronized.
1230:.\Generated_Source\PSoC4/PWM.c **** *
1231:.\Generated_Source\PSoC4/PWM.c **** * Parameters:
1232:.\Generated_Source\PSoC4/PWM.c **** *  mask: A combination of mask bits for each instance of the TCPWM that the
1233:.\Generated_Source\PSoC4/PWM.c **** *        command should apply to.  This function from one instance can be used
1234:.\Generated_Source\PSoC4/PWM.c **** *        to apply the command to any of the instances in the design.
1235:.\Generated_Source\PSoC4/PWM.c **** *        The mask value for a specific instance is available with the MASK
1236:.\Generated_Source\PSoC4/PWM.c **** *        define.
1237:.\Generated_Source\PSoC4/PWM.c **** *  command: Enumerated command values. Capture command only applicable for
1238:.\Generated_Source\PSoC4/PWM.c **** *           Timer/Counter with Capture and PWM modes.
1239:.\Generated_Source\PSoC4/PWM.c **** *   Values:
1240:.\Generated_Source\PSoC4/PWM.c **** *     - PWM_CMD_CAPTURE    - Trigger Capture command
1241:.\Generated_Source\PSoC4/PWM.c **** *     - PWM_CMD_RELOAD     - Trigger Reload command
1242:.\Generated_Source\PSoC4/PWM.c **** *     - PWM_CMD_STOP       - Trigger Stop command
1243:.\Generated_Source\PSoC4/PWM.c **** *     - PWM_CMD_START      - Trigger Start command
1244:.\Generated_Source\PSoC4/PWM.c **** *
1245:.\Generated_Source\PSoC4/PWM.c **** * Return:
1246:.\Generated_Source\PSoC4/PWM.c **** *  None
1247:.\Generated_Source\PSoC4/PWM.c **** *
1248:.\Generated_Source\PSoC4/PWM.c **** *******************************************************************************/
1249:.\Generated_Source\PSoC4/PWM.c **** void PWM_TriggerCommand(uint32 mask, uint32 command)
1250:.\Generated_Source\PSoC4/PWM.c **** {
 1743              		.loc 1 1250 0
 1744              		.cfi_startproc
 1745 0000 90B5     		push	{r4, r7, lr}
 1746              	.LCFI90:
 1747              		.cfi_def_cfa_offset 12
 1748              		.cfi_offset 4, -12
 1749              		.cfi_offset 7, -8
 1750              		.cfi_offset 14, -4
 1751 0002 85B0     		sub	sp, sp, #20
 1752              	.LCFI91:
 1753              		.cfi_def_cfa_offset 32
 1754 0004 00AF     		add	r7, sp, #0
 1755              	.LCFI92:
 1756              		.cfi_def_cfa_register 7
 1757 0006 7860     		str	r0, [r7, #4]
 1758 0008 3960     		str	r1, [r7]
1251:.\Generated_Source\PSoC4/PWM.c ****     uint8 enableInterrupts;
1252:.\Generated_Source\PSoC4/PWM.c **** 
1253:.\Generated_Source\PSoC4/PWM.c ****     enableInterrupts = CyEnterCriticalSection();
 1759              		.loc 1 1253 0
 1760 000a 3C1C     		mov	r4, r7
 1761 000c 0F34     		add	r4, r4, #15
 1762 000e FFF7FEFF 		bl	CyEnterCriticalSection
 1763 0012 031C     		mov	r3, r0
 1764 0014 2370     		strb	r3, [r4]
1254:.\Generated_Source\PSoC4/PWM.c **** 
1255:.\Generated_Source\PSoC4/PWM.c ****     PWM_COMMAND_REG = ((uint32)(mask << command));
 1765              		.loc 1 1255 0
 1766 0016 084B     		ldr	r3, .L109
ARM GAS  C:\Users\Terrance\AppData\Local\Temp\ccHh2A52.s 			page 54


 1767 0018 3A68     		ldr	r2, [r7]
 1768 001a 7968     		ldr	r1, [r7, #4]
 1769 001c 081C     		mov	r0, r1
 1770 001e 9040     		lsl	r0, r0, r2
 1771 0020 021C     		mov	r2, r0
 1772 0022 1A60     		str	r2, [r3]
1256:.\Generated_Source\PSoC4/PWM.c **** 
1257:.\Generated_Source\PSoC4/PWM.c ****     CyExitCriticalSection(enableInterrupts);
 1773              		.loc 1 1257 0
 1774 0024 3B1C     		mov	r3, r7
 1775 0026 0F33     		add	r3, r3, #15
 1776 0028 1B78     		ldrb	r3, [r3]
 1777 002a 181C     		mov	r0, r3
 1778 002c FFF7FEFF 		bl	CyExitCriticalSection
1258:.\Generated_Source\PSoC4/PWM.c **** }
 1779              		.loc 1 1258 0
 1780 0030 BD46     		mov	sp, r7
 1781 0032 05B0     		add	sp, sp, #20
 1782              		@ sp needed for prologue
 1783 0034 90BD     		pop	{r4, r7, pc}
 1784              	.L110:
 1785 0036 C046     		.align	2
 1786              	.L109:
 1787 0038 08000540 		.word	1074069512
 1788              		.cfi_endproc
 1789              	.LFE33:
 1790              		.size	PWM_TriggerCommand, .-PWM_TriggerCommand
 1791              		.section	.text.PWM_ReadStatus,"ax",%progbits
 1792              		.align	2
 1793              		.global	PWM_ReadStatus
 1794              		.code	16
 1795              		.thumb_func
 1796              		.type	PWM_ReadStatus, %function
 1797              	PWM_ReadStatus:
 1798              	.LFB34:
1259:.\Generated_Source\PSoC4/PWM.c **** 
1260:.\Generated_Source\PSoC4/PWM.c **** 
1261:.\Generated_Source\PSoC4/PWM.c **** /*******************************************************************************
1262:.\Generated_Source\PSoC4/PWM.c **** * Function Name: PWM_ReadStatus
1263:.\Generated_Source\PSoC4/PWM.c **** ********************************************************************************
1264:.\Generated_Source\PSoC4/PWM.c **** *
1265:.\Generated_Source\PSoC4/PWM.c **** * Summary:
1266:.\Generated_Source\PSoC4/PWM.c **** *  Reads the status of the PWM.
1267:.\Generated_Source\PSoC4/PWM.c **** *
1268:.\Generated_Source\PSoC4/PWM.c **** * Parameters:
1269:.\Generated_Source\PSoC4/PWM.c **** *  None
1270:.\Generated_Source\PSoC4/PWM.c **** *
1271:.\Generated_Source\PSoC4/PWM.c **** * Return:
1272:.\Generated_Source\PSoC4/PWM.c **** *  Status
1273:.\Generated_Source\PSoC4/PWM.c **** *   Values:
1274:.\Generated_Source\PSoC4/PWM.c **** *     - PWM_STATUS_DOWN    - Set if counting down
1275:.\Generated_Source\PSoC4/PWM.c **** *     - PWM_STATUS_RUNNING - Set if counter is running
1276:.\Generated_Source\PSoC4/PWM.c **** *
1277:.\Generated_Source\PSoC4/PWM.c **** *******************************************************************************/
1278:.\Generated_Source\PSoC4/PWM.c **** uint32 PWM_ReadStatus(void)
1279:.\Generated_Source\PSoC4/PWM.c **** {
 1799              		.loc 1 1279 0
ARM GAS  C:\Users\Terrance\AppData\Local\Temp\ccHh2A52.s 			page 55


 1800              		.cfi_startproc
 1801 0000 80B5     		push	{r7, lr}
 1802              	.LCFI93:
 1803              		.cfi_def_cfa_offset 8
 1804              		.cfi_offset 7, -8
 1805              		.cfi_offset 14, -4
 1806 0002 00AF     		add	r7, sp, #0
 1807              	.LCFI94:
 1808              		.cfi_def_cfa_register 7
1280:.\Generated_Source\PSoC4/PWM.c ****     return ((PWM_STATUS_REG >> PWM_RUNNING_STATUS_SHIFT) |
 1809              		.loc 1 1280 0
 1810 0004 054B     		ldr	r3, .L113
 1811 0006 1B68     		ldr	r3, [r3]
 1812 0008 9A0F     		lsr	r2, r3, #30
1281:.\Generated_Source\PSoC4/PWM.c ****             (PWM_STATUS_REG & PWM_STATUS_DOWN));
 1813              		.loc 1 1281 0
 1814 000a 044B     		ldr	r3, .L113
 1815 000c 1968     		ldr	r1, [r3]
 1816 000e 0123     		mov	r3, #1
 1817 0010 0B40     		and	r3, r1
1280:.\Generated_Source\PSoC4/PWM.c ****     return ((PWM_STATUS_REG >> PWM_RUNNING_STATUS_SHIFT) |
 1818              		.loc 1 1280 0
 1819 0012 1343     		orr	r3, r2
1282:.\Generated_Source\PSoC4/PWM.c **** }
 1820              		.loc 1 1282 0
 1821 0014 181C     		mov	r0, r3
 1822 0016 BD46     		mov	sp, r7
 1823              		@ sp needed for prologue
 1824 0018 80BD     		pop	{r7, pc}
 1825              	.L114:
 1826 001a C046     		.align	2
 1827              	.L113:
 1828 001c 04010540 		.word	1074069764
 1829              		.cfi_endproc
 1830              	.LFE34:
 1831              		.size	PWM_ReadStatus, .-PWM_ReadStatus
 1832              		.section	.text.PWM_SetInterruptMode,"ax",%progbits
 1833              		.align	2
 1834              		.global	PWM_SetInterruptMode
 1835              		.code	16
 1836              		.thumb_func
 1837              		.type	PWM_SetInterruptMode, %function
 1838              	PWM_SetInterruptMode:
 1839              	.LFB35:
1283:.\Generated_Source\PSoC4/PWM.c **** 
1284:.\Generated_Source\PSoC4/PWM.c **** 
1285:.\Generated_Source\PSoC4/PWM.c **** /*******************************************************************************
1286:.\Generated_Source\PSoC4/PWM.c **** * Function Name: PWM_SetInterruptMode
1287:.\Generated_Source\PSoC4/PWM.c **** ********************************************************************************
1288:.\Generated_Source\PSoC4/PWM.c **** *
1289:.\Generated_Source\PSoC4/PWM.c **** * Summary:
1290:.\Generated_Source\PSoC4/PWM.c **** *  Sets the interrupt mask to control which interrupt
1291:.\Generated_Source\PSoC4/PWM.c **** *  requests generate the interrupt signal.
1292:.\Generated_Source\PSoC4/PWM.c **** *
1293:.\Generated_Source\PSoC4/PWM.c **** * Parameters:
1294:.\Generated_Source\PSoC4/PWM.c **** *   interruptMask: Mask of bits to be enabled
1295:.\Generated_Source\PSoC4/PWM.c **** *   Values:
ARM GAS  C:\Users\Terrance\AppData\Local\Temp\ccHh2A52.s 			page 56


1296:.\Generated_Source\PSoC4/PWM.c **** *     - PWM_INTR_MASK_TC       - Terminal count mask
1297:.\Generated_Source\PSoC4/PWM.c **** *     - PWM_INTR_MASK_CC_MATCH - Compare count / capture mask
1298:.\Generated_Source\PSoC4/PWM.c **** *
1299:.\Generated_Source\PSoC4/PWM.c **** * Return:
1300:.\Generated_Source\PSoC4/PWM.c **** *  None
1301:.\Generated_Source\PSoC4/PWM.c **** *
1302:.\Generated_Source\PSoC4/PWM.c **** *******************************************************************************/
1303:.\Generated_Source\PSoC4/PWM.c **** void PWM_SetInterruptMode(uint32 interruptMask)
1304:.\Generated_Source\PSoC4/PWM.c **** {
 1840              		.loc 1 1304 0
 1841              		.cfi_startproc
 1842 0000 80B5     		push	{r7, lr}
 1843              	.LCFI95:
 1844              		.cfi_def_cfa_offset 8
 1845              		.cfi_offset 7, -8
 1846              		.cfi_offset 14, -4
 1847 0002 82B0     		sub	sp, sp, #8
 1848              	.LCFI96:
 1849              		.cfi_def_cfa_offset 16
 1850 0004 00AF     		add	r7, sp, #0
 1851              	.LCFI97:
 1852              		.cfi_def_cfa_register 7
 1853 0006 7860     		str	r0, [r7, #4]
1305:.\Generated_Source\PSoC4/PWM.c ****     PWM_INTERRUPT_MASK_REG =  interruptMask;
 1854              		.loc 1 1305 0
 1855 0008 024B     		ldr	r3, .L116
 1856 000a 7A68     		ldr	r2, [r7, #4]
 1857 000c 1A60     		str	r2, [r3]
1306:.\Generated_Source\PSoC4/PWM.c **** }
 1858              		.loc 1 1306 0
 1859 000e BD46     		mov	sp, r7
 1860 0010 02B0     		add	sp, sp, #8
 1861              		@ sp needed for prologue
 1862 0012 80BD     		pop	{r7, pc}
 1863              	.L117:
 1864              		.align	2
 1865              	.L116:
 1866 0014 38010540 		.word	1074069816
 1867              		.cfi_endproc
 1868              	.LFE35:
 1869              		.size	PWM_SetInterruptMode, .-PWM_SetInterruptMode
 1870              		.section	.text.PWM_GetInterruptSourceMasked,"ax",%progbits
 1871              		.align	2
 1872              		.global	PWM_GetInterruptSourceMasked
 1873              		.code	16
 1874              		.thumb_func
 1875              		.type	PWM_GetInterruptSourceMasked, %function
 1876              	PWM_GetInterruptSourceMasked:
 1877              	.LFB36:
1307:.\Generated_Source\PSoC4/PWM.c **** 
1308:.\Generated_Source\PSoC4/PWM.c **** 
1309:.\Generated_Source\PSoC4/PWM.c **** /*******************************************************************************
1310:.\Generated_Source\PSoC4/PWM.c **** * Function Name: PWM_GetInterruptSourceMasked
1311:.\Generated_Source\PSoC4/PWM.c **** ********************************************************************************
1312:.\Generated_Source\PSoC4/PWM.c **** *
1313:.\Generated_Source\PSoC4/PWM.c **** * Summary:
1314:.\Generated_Source\PSoC4/PWM.c **** *  Gets the interrupt requests masked by the interrupt mask.
ARM GAS  C:\Users\Terrance\AppData\Local\Temp\ccHh2A52.s 			page 57


1315:.\Generated_Source\PSoC4/PWM.c **** *
1316:.\Generated_Source\PSoC4/PWM.c **** * Parameters:
1317:.\Generated_Source\PSoC4/PWM.c **** *   None
1318:.\Generated_Source\PSoC4/PWM.c **** *
1319:.\Generated_Source\PSoC4/PWM.c **** * Return:
1320:.\Generated_Source\PSoC4/PWM.c **** *  Masked interrupt source
1321:.\Generated_Source\PSoC4/PWM.c **** *   Values:
1322:.\Generated_Source\PSoC4/PWM.c **** *     - PWM_INTR_MASK_TC       - Terminal count mask
1323:.\Generated_Source\PSoC4/PWM.c **** *     - PWM_INTR_MASK_CC_MATCH - Compare count / capture mask
1324:.\Generated_Source\PSoC4/PWM.c **** *
1325:.\Generated_Source\PSoC4/PWM.c **** *******************************************************************************/
1326:.\Generated_Source\PSoC4/PWM.c **** uint32 PWM_GetInterruptSourceMasked(void)
1327:.\Generated_Source\PSoC4/PWM.c **** {
 1878              		.loc 1 1327 0
 1879              		.cfi_startproc
 1880 0000 80B5     		push	{r7, lr}
 1881              	.LCFI98:
 1882              		.cfi_def_cfa_offset 8
 1883              		.cfi_offset 7, -8
 1884              		.cfi_offset 14, -4
 1885 0002 00AF     		add	r7, sp, #0
 1886              	.LCFI99:
 1887              		.cfi_def_cfa_register 7
1328:.\Generated_Source\PSoC4/PWM.c ****     return (PWM_INTERRUPT_MASKED_REG);
 1888              		.loc 1 1328 0
 1889 0004 024B     		ldr	r3, .L120
 1890 0006 1B68     		ldr	r3, [r3]
1329:.\Generated_Source\PSoC4/PWM.c **** }
 1891              		.loc 1 1329 0
 1892 0008 181C     		mov	r0, r3
 1893 000a BD46     		mov	sp, r7
 1894              		@ sp needed for prologue
 1895 000c 80BD     		pop	{r7, pc}
 1896              	.L121:
 1897 000e C046     		.align	2
 1898              	.L120:
 1899 0010 3C010540 		.word	1074069820
 1900              		.cfi_endproc
 1901              	.LFE36:
 1902              		.size	PWM_GetInterruptSourceMasked, .-PWM_GetInterruptSourceMasked
 1903              		.section	.text.PWM_GetInterruptSource,"ax",%progbits
 1904              		.align	2
 1905              		.global	PWM_GetInterruptSource
 1906              		.code	16
 1907              		.thumb_func
 1908              		.type	PWM_GetInterruptSource, %function
 1909              	PWM_GetInterruptSource:
 1910              	.LFB37:
1330:.\Generated_Source\PSoC4/PWM.c **** 
1331:.\Generated_Source\PSoC4/PWM.c **** 
1332:.\Generated_Source\PSoC4/PWM.c **** /*******************************************************************************
1333:.\Generated_Source\PSoC4/PWM.c **** * Function Name: PWM_GetInterruptSource
1334:.\Generated_Source\PSoC4/PWM.c **** ********************************************************************************
1335:.\Generated_Source\PSoC4/PWM.c **** *
1336:.\Generated_Source\PSoC4/PWM.c **** * Summary:
1337:.\Generated_Source\PSoC4/PWM.c **** *  Gets the interrupt requests (without masking).
1338:.\Generated_Source\PSoC4/PWM.c **** *
ARM GAS  C:\Users\Terrance\AppData\Local\Temp\ccHh2A52.s 			page 58


1339:.\Generated_Source\PSoC4/PWM.c **** * Parameters:
1340:.\Generated_Source\PSoC4/PWM.c **** *  None
1341:.\Generated_Source\PSoC4/PWM.c **** *
1342:.\Generated_Source\PSoC4/PWM.c **** * Return:
1343:.\Generated_Source\PSoC4/PWM.c **** *  Interrupt request value
1344:.\Generated_Source\PSoC4/PWM.c **** *   Values:
1345:.\Generated_Source\PSoC4/PWM.c **** *     - PWM_INTR_MASK_TC       - Terminal count mask
1346:.\Generated_Source\PSoC4/PWM.c **** *     - PWM_INTR_MASK_CC_MATCH - Compare count / capture mask
1347:.\Generated_Source\PSoC4/PWM.c **** *
1348:.\Generated_Source\PSoC4/PWM.c **** *******************************************************************************/
1349:.\Generated_Source\PSoC4/PWM.c **** uint32 PWM_GetInterruptSource(void)
1350:.\Generated_Source\PSoC4/PWM.c **** {
 1911              		.loc 1 1350 0
 1912              		.cfi_startproc
 1913 0000 80B5     		push	{r7, lr}
 1914              	.LCFI100:
 1915              		.cfi_def_cfa_offset 8
 1916              		.cfi_offset 7, -8
 1917              		.cfi_offset 14, -4
 1918 0002 00AF     		add	r7, sp, #0
 1919              	.LCFI101:
 1920              		.cfi_def_cfa_register 7
1351:.\Generated_Source\PSoC4/PWM.c ****     return (PWM_INTERRUPT_REQ_REG);
 1921              		.loc 1 1351 0
 1922 0004 024B     		ldr	r3, .L124
 1923 0006 1B68     		ldr	r3, [r3]
1352:.\Generated_Source\PSoC4/PWM.c **** }
 1924              		.loc 1 1352 0
 1925 0008 181C     		mov	r0, r3
 1926 000a BD46     		mov	sp, r7
 1927              		@ sp needed for prologue
 1928 000c 80BD     		pop	{r7, pc}
 1929              	.L125:
 1930 000e C046     		.align	2
 1931              	.L124:
 1932 0010 30010540 		.word	1074069808
 1933              		.cfi_endproc
 1934              	.LFE37:
 1935              		.size	PWM_GetInterruptSource, .-PWM_GetInterruptSource
 1936              		.section	.text.PWM_ClearInterrupt,"ax",%progbits
 1937              		.align	2
 1938              		.global	PWM_ClearInterrupt
 1939              		.code	16
 1940              		.thumb_func
 1941              		.type	PWM_ClearInterrupt, %function
 1942              	PWM_ClearInterrupt:
 1943              	.LFB38:
1353:.\Generated_Source\PSoC4/PWM.c **** 
1354:.\Generated_Source\PSoC4/PWM.c **** 
1355:.\Generated_Source\PSoC4/PWM.c **** /*******************************************************************************
1356:.\Generated_Source\PSoC4/PWM.c **** * Function Name: PWM_ClearInterrupt
1357:.\Generated_Source\PSoC4/PWM.c **** ********************************************************************************
1358:.\Generated_Source\PSoC4/PWM.c **** *
1359:.\Generated_Source\PSoC4/PWM.c **** * Summary:
1360:.\Generated_Source\PSoC4/PWM.c **** *  Clears the interrupt request.
1361:.\Generated_Source\PSoC4/PWM.c **** *
1362:.\Generated_Source\PSoC4/PWM.c **** * Parameters:
ARM GAS  C:\Users\Terrance\AppData\Local\Temp\ccHh2A52.s 			page 59


1363:.\Generated_Source\PSoC4/PWM.c **** *   interruptMask: Mask of interrupts to clear
1364:.\Generated_Source\PSoC4/PWM.c **** *   Values:
1365:.\Generated_Source\PSoC4/PWM.c **** *     - PWM_INTR_MASK_TC       - Terminal count mask
1366:.\Generated_Source\PSoC4/PWM.c **** *     - PWM_INTR_MASK_CC_MATCH - Compare count / capture mask
1367:.\Generated_Source\PSoC4/PWM.c **** *
1368:.\Generated_Source\PSoC4/PWM.c **** * Return:
1369:.\Generated_Source\PSoC4/PWM.c **** *  None
1370:.\Generated_Source\PSoC4/PWM.c **** *
1371:.\Generated_Source\PSoC4/PWM.c **** *******************************************************************************/
1372:.\Generated_Source\PSoC4/PWM.c **** void PWM_ClearInterrupt(uint32 interruptMask)
1373:.\Generated_Source\PSoC4/PWM.c **** {
 1944              		.loc 1 1373 0
 1945              		.cfi_startproc
 1946 0000 80B5     		push	{r7, lr}
 1947              	.LCFI102:
 1948              		.cfi_def_cfa_offset 8
 1949              		.cfi_offset 7, -8
 1950              		.cfi_offset 14, -4
 1951 0002 82B0     		sub	sp, sp, #8
 1952              	.LCFI103:
 1953              		.cfi_def_cfa_offset 16
 1954 0004 00AF     		add	r7, sp, #0
 1955              	.LCFI104:
 1956              		.cfi_def_cfa_register 7
 1957 0006 7860     		str	r0, [r7, #4]
1374:.\Generated_Source\PSoC4/PWM.c ****     PWM_INTERRUPT_REQ_REG = interruptMask;
 1958              		.loc 1 1374 0
 1959 0008 024B     		ldr	r3, .L127
 1960 000a 7A68     		ldr	r2, [r7, #4]
 1961 000c 1A60     		str	r2, [r3]
1375:.\Generated_Source\PSoC4/PWM.c **** }
 1962              		.loc 1 1375 0
 1963 000e BD46     		mov	sp, r7
 1964 0010 02B0     		add	sp, sp, #8
 1965              		@ sp needed for prologue
 1966 0012 80BD     		pop	{r7, pc}
 1967              	.L128:
 1968              		.align	2
 1969              	.L127:
 1970 0014 30010540 		.word	1074069808
 1971              		.cfi_endproc
 1972              	.LFE38:
 1973              		.size	PWM_ClearInterrupt, .-PWM_ClearInterrupt
 1974              		.section	.text.PWM_SetInterrupt,"ax",%progbits
 1975              		.align	2
 1976              		.global	PWM_SetInterrupt
 1977              		.code	16
 1978              		.thumb_func
 1979              		.type	PWM_SetInterrupt, %function
 1980              	PWM_SetInterrupt:
 1981              	.LFB39:
1376:.\Generated_Source\PSoC4/PWM.c **** 
1377:.\Generated_Source\PSoC4/PWM.c **** 
1378:.\Generated_Source\PSoC4/PWM.c **** /*******************************************************************************
1379:.\Generated_Source\PSoC4/PWM.c **** * Function Name: PWM_SetInterrupt
1380:.\Generated_Source\PSoC4/PWM.c **** ********************************************************************************
1381:.\Generated_Source\PSoC4/PWM.c **** *
ARM GAS  C:\Users\Terrance\AppData\Local\Temp\ccHh2A52.s 			page 60


1382:.\Generated_Source\PSoC4/PWM.c **** * Summary:
1383:.\Generated_Source\PSoC4/PWM.c **** *  Sets a software interrupt request.
1384:.\Generated_Source\PSoC4/PWM.c **** *
1385:.\Generated_Source\PSoC4/PWM.c **** * Parameters:
1386:.\Generated_Source\PSoC4/PWM.c **** *   interruptMask: Mask of interrupts to set
1387:.\Generated_Source\PSoC4/PWM.c **** *   Values:
1388:.\Generated_Source\PSoC4/PWM.c **** *     - PWM_INTR_MASK_TC       - Terminal count mask
1389:.\Generated_Source\PSoC4/PWM.c **** *     - PWM_INTR_MASK_CC_MATCH - Compare count / capture mask
1390:.\Generated_Source\PSoC4/PWM.c **** *
1391:.\Generated_Source\PSoC4/PWM.c **** * Return:
1392:.\Generated_Source\PSoC4/PWM.c **** *  None
1393:.\Generated_Source\PSoC4/PWM.c **** *
1394:.\Generated_Source\PSoC4/PWM.c **** *******************************************************************************/
1395:.\Generated_Source\PSoC4/PWM.c **** void PWM_SetInterrupt(uint32 interruptMask)
1396:.\Generated_Source\PSoC4/PWM.c **** {
 1982              		.loc 1 1396 0
 1983              		.cfi_startproc
 1984 0000 80B5     		push	{r7, lr}
 1985              	.LCFI105:
 1986              		.cfi_def_cfa_offset 8
 1987              		.cfi_offset 7, -8
 1988              		.cfi_offset 14, -4
 1989 0002 82B0     		sub	sp, sp, #8
 1990              	.LCFI106:
 1991              		.cfi_def_cfa_offset 16
 1992 0004 00AF     		add	r7, sp, #0
 1993              	.LCFI107:
 1994              		.cfi_def_cfa_register 7
 1995 0006 7860     		str	r0, [r7, #4]
1397:.\Generated_Source\PSoC4/PWM.c ****     PWM_INTERRUPT_SET_REG = interruptMask;
 1996              		.loc 1 1397 0
 1997 0008 024B     		ldr	r3, .L130
 1998 000a 7A68     		ldr	r2, [r7, #4]
 1999 000c 1A60     		str	r2, [r3]
1398:.\Generated_Source\PSoC4/PWM.c **** }
 2000              		.loc 1 1398 0
 2001 000e BD46     		mov	sp, r7
 2002 0010 02B0     		add	sp, sp, #8
 2003              		@ sp needed for prologue
 2004 0012 80BD     		pop	{r7, pc}
 2005              	.L131:
 2006              		.align	2
 2007              	.L130:
 2008 0014 34010540 		.word	1074069812
 2009              		.cfi_endproc
 2010              	.LFE39:
 2011              		.size	PWM_SetInterrupt, .-PWM_SetInterrupt
 2012              		.text
 2013              	.Letext0:
 2014              		.file 2 ".\\Generated_Source\\PSoC4\\cytypes.h"